
ctarget:     file format elf64-x86-64


Disassembly of section .init:

0000000000400bb0 <_init>:
  400bb0:	48 83 ec 08          	sub    $0x8,%rsp
  400bb4:	48 8b 05 3d 34 20 00 	mov    0x20343d(%rip),%rax        # 603ff8 <__gmon_start__>
  400bbb:	48 85 c0             	test   %rax,%rax
  400bbe:	74 05                	je     400bc5 <_init+0x15>
  400bc0:	e8 2b 02 00 00       	callq  400df0 <.plt.got>
  400bc5:	48 83 c4 08          	add    $0x8,%rsp
  400bc9:	c3                   	retq   

Disassembly of section .plt:

0000000000400bd0 <.plt>:
  400bd0:	ff 35 32 34 20 00    	pushq  0x203432(%rip)        # 604008 <_GLOBAL_OFFSET_TABLE_+0x8>
  400bd6:	ff 25 34 34 20 00    	jmpq   *0x203434(%rip)        # 604010 <_GLOBAL_OFFSET_TABLE_+0x10>
  400bdc:	0f 1f 40 00          	nopl   0x0(%rax)

0000000000400be0 <strcasecmp@plt>:
  400be0:	ff 25 32 34 20 00    	jmpq   *0x203432(%rip)        # 604018 <strcasecmp@GLIBC_2.2.5>
  400be6:	68 00 00 00 00       	pushq  $0x0
  400beb:	e9 e0 ff ff ff       	jmpq   400bd0 <.plt>

0000000000400bf0 <__errno_location@plt>:
  400bf0:	ff 25 2a 34 20 00    	jmpq   *0x20342a(%rip)        # 604020 <__errno_location@GLIBC_2.2.5>
  400bf6:	68 01 00 00 00       	pushq  $0x1
  400bfb:	e9 d0 ff ff ff       	jmpq   400bd0 <.plt>

0000000000400c00 <srandom@plt>:
  400c00:	ff 25 22 34 20 00    	jmpq   *0x203422(%rip)        # 604028 <srandom@GLIBC_2.2.5>
  400c06:	68 02 00 00 00       	pushq  $0x2
  400c0b:	e9 c0 ff ff ff       	jmpq   400bd0 <.plt>

0000000000400c10 <strncmp@plt>:
  400c10:	ff 25 1a 34 20 00    	jmpq   *0x20341a(%rip)        # 604030 <strncmp@GLIBC_2.2.5>
  400c16:	68 03 00 00 00       	pushq  $0x3
  400c1b:	e9 b0 ff ff ff       	jmpq   400bd0 <.plt>

0000000000400c20 <strcpy@plt>:
  400c20:	ff 25 12 34 20 00    	jmpq   *0x203412(%rip)        # 604038 <strcpy@GLIBC_2.2.5>
  400c26:	68 04 00 00 00       	pushq  $0x4
  400c2b:	e9 a0 ff ff ff       	jmpq   400bd0 <.plt>

0000000000400c30 <puts@plt>:
  400c30:	ff 25 0a 34 20 00    	jmpq   *0x20340a(%rip)        # 604040 <puts@GLIBC_2.2.5>
  400c36:	68 05 00 00 00       	pushq  $0x5
  400c3b:	e9 90 ff ff ff       	jmpq   400bd0 <.plt>

0000000000400c40 <write@plt>:
  400c40:	ff 25 02 34 20 00    	jmpq   *0x203402(%rip)        # 604048 <write@GLIBC_2.2.5>
  400c46:	68 06 00 00 00       	pushq  $0x6
  400c4b:	e9 80 ff ff ff       	jmpq   400bd0 <.plt>

0000000000400c50 <mmap@plt>:
  400c50:	ff 25 fa 33 20 00    	jmpq   *0x2033fa(%rip)        # 604050 <mmap@GLIBC_2.2.5>
  400c56:	68 07 00 00 00       	pushq  $0x7
  400c5b:	e9 70 ff ff ff       	jmpq   400bd0 <.plt>

0000000000400c60 <printf@plt>:
  400c60:	ff 25 f2 33 20 00    	jmpq   *0x2033f2(%rip)        # 604058 <printf@GLIBC_2.2.5>
  400c66:	68 08 00 00 00       	pushq  $0x8
  400c6b:	e9 60 ff ff ff       	jmpq   400bd0 <.plt>

0000000000400c70 <memset@plt>:
  400c70:	ff 25 ea 33 20 00    	jmpq   *0x2033ea(%rip)        # 604060 <memset@GLIBC_2.2.5>
  400c76:	68 09 00 00 00       	pushq  $0x9
  400c7b:	e9 50 ff ff ff       	jmpq   400bd0 <.plt>

0000000000400c80 <alarm@plt>:
  400c80:	ff 25 e2 33 20 00    	jmpq   *0x2033e2(%rip)        # 604068 <alarm@GLIBC_2.2.5>
  400c86:	68 0a 00 00 00       	pushq  $0xa
  400c8b:	e9 40 ff ff ff       	jmpq   400bd0 <.plt>

0000000000400c90 <close@plt>:
  400c90:	ff 25 da 33 20 00    	jmpq   *0x2033da(%rip)        # 604070 <close@GLIBC_2.2.5>
  400c96:	68 0b 00 00 00       	pushq  $0xb
  400c9b:	e9 30 ff ff ff       	jmpq   400bd0 <.plt>

0000000000400ca0 <read@plt>:
  400ca0:	ff 25 d2 33 20 00    	jmpq   *0x2033d2(%rip)        # 604078 <read@GLIBC_2.2.5>
  400ca6:	68 0c 00 00 00       	pushq  $0xc
  400cab:	e9 20 ff ff ff       	jmpq   400bd0 <.plt>

0000000000400cb0 <__libc_start_main@plt>:
  400cb0:	ff 25 ca 33 20 00    	jmpq   *0x2033ca(%rip)        # 604080 <__libc_start_main@GLIBC_2.2.5>
  400cb6:	68 0d 00 00 00       	pushq  $0xd
  400cbb:	e9 10 ff ff ff       	jmpq   400bd0 <.plt>

0000000000400cc0 <signal@plt>:
  400cc0:	ff 25 c2 33 20 00    	jmpq   *0x2033c2(%rip)        # 604088 <signal@GLIBC_2.2.5>
  400cc6:	68 0e 00 00 00       	pushq  $0xe
  400ccb:	e9 00 ff ff ff       	jmpq   400bd0 <.plt>

0000000000400cd0 <gethostbyname@plt>:
  400cd0:	ff 25 ba 33 20 00    	jmpq   *0x2033ba(%rip)        # 604090 <gethostbyname@GLIBC_2.2.5>
  400cd6:	68 0f 00 00 00       	pushq  $0xf
  400cdb:	e9 f0 fe ff ff       	jmpq   400bd0 <.plt>

0000000000400ce0 <fprintf@plt>:
  400ce0:	ff 25 b2 33 20 00    	jmpq   *0x2033b2(%rip)        # 604098 <fprintf@GLIBC_2.2.5>
  400ce6:	68 10 00 00 00       	pushq  $0x10
  400ceb:	e9 e0 fe ff ff       	jmpq   400bd0 <.plt>

0000000000400cf0 <strtol@plt>:
  400cf0:	ff 25 aa 33 20 00    	jmpq   *0x2033aa(%rip)        # 6040a0 <strtol@GLIBC_2.2.5>
  400cf6:	68 11 00 00 00       	pushq  $0x11
  400cfb:	e9 d0 fe ff ff       	jmpq   400bd0 <.plt>

0000000000400d00 <memcpy@plt>:
  400d00:	ff 25 a2 33 20 00    	jmpq   *0x2033a2(%rip)        # 6040a8 <memcpy@GLIBC_2.14>
  400d06:	68 12 00 00 00       	pushq  $0x12
  400d0b:	e9 c0 fe ff ff       	jmpq   400bd0 <.plt>

0000000000400d10 <time@plt>:
  400d10:	ff 25 9a 33 20 00    	jmpq   *0x20339a(%rip)        # 6040b0 <time@GLIBC_2.2.5>
  400d16:	68 13 00 00 00       	pushq  $0x13
  400d1b:	e9 b0 fe ff ff       	jmpq   400bd0 <.plt>

0000000000400d20 <random@plt>:
  400d20:	ff 25 92 33 20 00    	jmpq   *0x203392(%rip)        # 6040b8 <random@GLIBC_2.2.5>
  400d26:	68 14 00 00 00       	pushq  $0x14
  400d2b:	e9 a0 fe ff ff       	jmpq   400bd0 <.plt>

0000000000400d30 <_IO_getc@plt>:
  400d30:	ff 25 8a 33 20 00    	jmpq   *0x20338a(%rip)        # 6040c0 <_IO_getc@GLIBC_2.2.5>
  400d36:	68 15 00 00 00       	pushq  $0x15
  400d3b:	e9 90 fe ff ff       	jmpq   400bd0 <.plt>

0000000000400d40 <__isoc99_sscanf@plt>:
  400d40:	ff 25 82 33 20 00    	jmpq   *0x203382(%rip)        # 6040c8 <__isoc99_sscanf@GLIBC_2.7>
  400d46:	68 16 00 00 00       	pushq  $0x16
  400d4b:	e9 80 fe ff ff       	jmpq   400bd0 <.plt>

0000000000400d50 <munmap@plt>:
  400d50:	ff 25 7a 33 20 00    	jmpq   *0x20337a(%rip)        # 6040d0 <munmap@GLIBC_2.2.5>
  400d56:	68 17 00 00 00       	pushq  $0x17
  400d5b:	e9 70 fe ff ff       	jmpq   400bd0 <.plt>

0000000000400d60 <bcopy@plt>:
  400d60:	ff 25 72 33 20 00    	jmpq   *0x203372(%rip)        # 6040d8 <bcopy@GLIBC_2.2.5>
  400d66:	68 18 00 00 00       	pushq  $0x18
  400d6b:	e9 60 fe ff ff       	jmpq   400bd0 <.plt>

0000000000400d70 <fopen@plt>:
  400d70:	ff 25 6a 33 20 00    	jmpq   *0x20336a(%rip)        # 6040e0 <fopen@GLIBC_2.2.5>
  400d76:	68 19 00 00 00       	pushq  $0x19
  400d7b:	e9 50 fe ff ff       	jmpq   400bd0 <.plt>

0000000000400d80 <getopt@plt>:
  400d80:	ff 25 62 33 20 00    	jmpq   *0x203362(%rip)        # 6040e8 <getopt@GLIBC_2.2.5>
  400d86:	68 1a 00 00 00       	pushq  $0x1a
  400d8b:	e9 40 fe ff ff       	jmpq   400bd0 <.plt>

0000000000400d90 <strtoul@plt>:
  400d90:	ff 25 5a 33 20 00    	jmpq   *0x20335a(%rip)        # 6040f0 <strtoul@GLIBC_2.2.5>
  400d96:	68 1b 00 00 00       	pushq  $0x1b
  400d9b:	e9 30 fe ff ff       	jmpq   400bd0 <.plt>

0000000000400da0 <gethostname@plt>:
  400da0:	ff 25 52 33 20 00    	jmpq   *0x203352(%rip)        # 6040f8 <gethostname@GLIBC_2.2.5>
  400da6:	68 1c 00 00 00       	pushq  $0x1c
  400dab:	e9 20 fe ff ff       	jmpq   400bd0 <.plt>

0000000000400db0 <sprintf@plt>:
  400db0:	ff 25 4a 33 20 00    	jmpq   *0x20334a(%rip)        # 604100 <sprintf@GLIBC_2.2.5>
  400db6:	68 1d 00 00 00       	pushq  $0x1d
  400dbb:	e9 10 fe ff ff       	jmpq   400bd0 <.plt>

0000000000400dc0 <exit@plt>:
  400dc0:	ff 25 42 33 20 00    	jmpq   *0x203342(%rip)        # 604108 <exit@GLIBC_2.2.5>
  400dc6:	68 1e 00 00 00       	pushq  $0x1e
  400dcb:	e9 00 fe ff ff       	jmpq   400bd0 <.plt>

0000000000400dd0 <connect@plt>:
  400dd0:	ff 25 3a 33 20 00    	jmpq   *0x20333a(%rip)        # 604110 <connect@GLIBC_2.2.5>
  400dd6:	68 1f 00 00 00       	pushq  $0x1f
  400ddb:	e9 f0 fd ff ff       	jmpq   400bd0 <.plt>

0000000000400de0 <socket@plt>:
  400de0:	ff 25 32 33 20 00    	jmpq   *0x203332(%rip)        # 604118 <socket@GLIBC_2.2.5>
  400de6:	68 20 00 00 00       	pushq  $0x20
  400deb:	e9 e0 fd ff ff       	jmpq   400bd0 <.plt>

Disassembly of section .plt.got:

0000000000400df0 <.plt.got>:
  400df0:	ff 25 02 32 20 00    	jmpq   *0x203202(%rip)        # 603ff8 <__gmon_start__>
  400df6:	66 90                	xchg   %ax,%ax

Disassembly of section .text:

0000000000400e00 <_start>:
  400e00:	31 ed                	xor    %ebp,%ebp
  400e02:	49 89 d1             	mov    %rdx,%r9
  400e05:	5e                   	pop    %rsi
  400e06:	48 89 e2             	mov    %rsp,%rdx
  400e09:	48 83 e4 f0          	and    $0xfffffffffffffff0,%rsp
  400e0d:	50                   	push   %rax
  400e0e:	54                   	push   %rsp
  400e0f:	49 c7 c0 80 2b 40 00 	mov    $0x402b80,%r8
  400e16:	48 c7 c1 10 2b 40 00 	mov    $0x402b10,%rcx
  400e1d:	48 c7 c7 c0 10 40 00 	mov    $0x4010c0,%rdi
  400e24:	e8 87 fe ff ff       	callq  400cb0 <__libc_start_main@plt>
  400e29:	f4                   	hlt    
  400e2a:	66 0f 1f 44 00 00    	nopw   0x0(%rax,%rax,1)

0000000000400e30 <deregister_tm_clones>:
  400e30:	b8 97 44 60 00       	mov    $0x604497,%eax
  400e35:	55                   	push   %rbp
  400e36:	48 2d 90 44 60 00    	sub    $0x604490,%rax
  400e3c:	48 83 f8 0e          	cmp    $0xe,%rax
  400e40:	48 89 e5             	mov    %rsp,%rbp
  400e43:	77 02                	ja     400e47 <deregister_tm_clones+0x17>
  400e45:	5d                   	pop    %rbp
  400e46:	c3                   	retq   
  400e47:	b8 00 00 00 00       	mov    $0x0,%eax
  400e4c:	48 85 c0             	test   %rax,%rax
  400e4f:	74 f4                	je     400e45 <deregister_tm_clones+0x15>
  400e51:	5d                   	pop    %rbp
  400e52:	bf 90 44 60 00       	mov    $0x604490,%edi
  400e57:	ff e0                	jmpq   *%rax
  400e59:	0f 1f 80 00 00 00 00 	nopl   0x0(%rax)

0000000000400e60 <register_tm_clones>:
  400e60:	b8 90 44 60 00       	mov    $0x604490,%eax
  400e65:	55                   	push   %rbp
  400e66:	48 2d 90 44 60 00    	sub    $0x604490,%rax
  400e6c:	48 c1 f8 03          	sar    $0x3,%rax
  400e70:	48 89 e5             	mov    %rsp,%rbp
  400e73:	48 89 c2             	mov    %rax,%rdx
  400e76:	48 c1 ea 3f          	shr    $0x3f,%rdx
  400e7a:	48 01 d0             	add    %rdx,%rax
  400e7d:	48 d1 f8             	sar    %rax
  400e80:	75 02                	jne    400e84 <register_tm_clones+0x24>
  400e82:	5d                   	pop    %rbp
  400e83:	c3                   	retq   
  400e84:	ba 00 00 00 00       	mov    $0x0,%edx
  400e89:	48 85 d2             	test   %rdx,%rdx
  400e8c:	74 f4                	je     400e82 <register_tm_clones+0x22>
  400e8e:	5d                   	pop    %rbp
  400e8f:	48 89 c6             	mov    %rax,%rsi
  400e92:	bf 90 44 60 00       	mov    $0x604490,%edi
  400e97:	ff e2                	jmpq   *%rdx
  400e99:	0f 1f 80 00 00 00 00 	nopl   0x0(%rax)

0000000000400ea0 <__do_global_dtors_aux>:
  400ea0:	80 3d 11 36 20 00 00 	cmpb   $0x0,0x203611(%rip)        # 6044b8 <completed.6355>
  400ea7:	75 11                	jne    400eba <__do_global_dtors_aux+0x1a>
  400ea9:	55                   	push   %rbp
  400eaa:	48 89 e5             	mov    %rsp,%rbp
  400ead:	e8 7e ff ff ff       	callq  400e30 <deregister_tm_clones>
  400eb2:	5d                   	pop    %rbp
  400eb3:	c6 05 fe 35 20 00 01 	movb   $0x1,0x2035fe(%rip)        # 6044b8 <completed.6355>
  400eba:	f3 c3                	repz retq 
  400ebc:	0f 1f 40 00          	nopl   0x0(%rax)

0000000000400ec0 <frame_dummy>:
  400ec0:	48 83 3d 58 2f 20 00 	cmpq   $0x0,0x202f58(%rip)        # 603e20 <__JCR_END__>
  400ec7:	00 
  400ec8:	74 1e                	je     400ee8 <frame_dummy+0x28>
  400eca:	b8 00 00 00 00       	mov    $0x0,%eax
  400ecf:	48 85 c0             	test   %rax,%rax
  400ed2:	74 14                	je     400ee8 <frame_dummy+0x28>
  400ed4:	55                   	push   %rbp
  400ed5:	bf 20 3e 60 00       	mov    $0x603e20,%edi
  400eda:	48 89 e5             	mov    %rsp,%rbp
  400edd:	ff d0                	callq  *%rax
  400edf:	5d                   	pop    %rbp
  400ee0:	e9 7b ff ff ff       	jmpq   400e60 <register_tm_clones>
  400ee5:	0f 1f 00             	nopl   (%rax)
  400ee8:	e9 73 ff ff ff       	jmpq   400e60 <register_tm_clones>
  400eed:	0f 1f 00             	nopl   (%rax)

0000000000400ef0 <usage>:
  400ef0:	48 83 ec 08          	sub    $0x8,%rsp
  400ef4:	48 89 fe             	mov    %rdi,%rsi
  400ef7:	83 3d ea 35 20 00 00 	cmpl   $0x0,0x2035ea(%rip)        # 6044e8 <is_checker>
  400efe:	74 39                	je     400f39 <usage+0x49>
  400f00:	bf a0 2b 40 00       	mov    $0x402ba0,%edi
  400f05:	b8 00 00 00 00       	mov    $0x0,%eax
  400f0a:	e8 51 fd ff ff       	callq  400c60 <printf@plt>
  400f0f:	bf d8 2b 40 00       	mov    $0x402bd8,%edi
  400f14:	e8 17 fd ff ff       	callq  400c30 <puts@plt>
  400f19:	bf 50 2d 40 00       	mov    $0x402d50,%edi
  400f1e:	e8 0d fd ff ff       	callq  400c30 <puts@plt>
  400f23:	bf 00 2c 40 00       	mov    $0x402c00,%edi
  400f28:	e8 03 fd ff ff       	callq  400c30 <puts@plt>
  400f2d:	bf 6a 2d 40 00       	mov    $0x402d6a,%edi
  400f32:	e8 f9 fc ff ff       	callq  400c30 <puts@plt>
  400f37:	eb 2d                	jmp    400f66 <usage+0x76>
  400f39:	bf 86 2d 40 00       	mov    $0x402d86,%edi
  400f3e:	b8 00 00 00 00       	mov    $0x0,%eax
  400f43:	e8 18 fd ff ff       	callq  400c60 <printf@plt>
  400f48:	bf 28 2c 40 00       	mov    $0x402c28,%edi
  400f4d:	e8 de fc ff ff       	callq  400c30 <puts@plt>
  400f52:	bf 50 2c 40 00       	mov    $0x402c50,%edi
  400f57:	e8 d4 fc ff ff       	callq  400c30 <puts@plt>
  400f5c:	bf a4 2d 40 00       	mov    $0x402da4,%edi
  400f61:	e8 ca fc ff ff       	callq  400c30 <puts@plt>
  400f66:	bf 00 00 00 00       	mov    $0x0,%edi
  400f6b:	e8 50 fe ff ff       	callq  400dc0 <exit@plt>

0000000000400f70 <initialize_target>:
  400f70:	55                   	push   %rbp
  400f71:	53                   	push   %rbx
  400f72:	48 81 ec 08 21 00 00 	sub    $0x2108,%rsp
  400f79:	89 f5                	mov    %esi,%ebp
  400f7b:	89 3d 57 35 20 00    	mov    %edi,0x203557(%rip)        # 6044d8 <check_level>
  400f81:	8b 3d c1 31 20 00    	mov    0x2031c1(%rip),%edi        # 604148 <target_id>
  400f87:	e8 57 1b 00 00       	callq  402ae3 <gencookie>
  400f8c:	89 05 52 35 20 00    	mov    %eax,0x203552(%rip)        # 6044e4 <cookie>
  400f92:	89 c7                	mov    %eax,%edi
  400f94:	e8 4a 1b 00 00       	callq  402ae3 <gencookie>
  400f99:	89 05 41 35 20 00    	mov    %eax,0x203541(%rip)        # 6044e0 <authkey>
  400f9f:	8b 05 a3 31 20 00    	mov    0x2031a3(%rip),%eax        # 604148 <target_id>
  400fa5:	8d 78 01             	lea    0x1(%rax),%edi
  400fa8:	e8 53 fc ff ff       	callq  400c00 <srandom@plt>
  400fad:	e8 6e fd ff ff       	callq  400d20 <random@plt>
  400fb2:	89 c7                	mov    %eax,%edi
  400fb4:	e8 ca 02 00 00       	callq  401283 <scramble>
  400fb9:	89 c3                	mov    %eax,%ebx
  400fbb:	85 ed                	test   %ebp,%ebp
  400fbd:	74 18                	je     400fd7 <initialize_target+0x67>
  400fbf:	bf 00 00 00 00       	mov    $0x0,%edi
  400fc4:	e8 47 fd ff ff       	callq  400d10 <time@plt>
  400fc9:	89 c7                	mov    %eax,%edi
  400fcb:	e8 30 fc ff ff       	callq  400c00 <srandom@plt>
  400fd0:	e8 4b fd ff ff       	callq  400d20 <random@plt>
  400fd5:	eb 05                	jmp    400fdc <initialize_target+0x6c>
  400fd7:	b8 00 00 00 00       	mov    $0x0,%eax
  400fdc:	01 c3                	add    %eax,%ebx
  400fde:	0f b7 db             	movzwl %bx,%ebx
  400fe1:	8d 04 dd 00 01 00 00 	lea    0x100(,%rbx,8),%eax
  400fe8:	89 c0                	mov    %eax,%eax
  400fea:	48 89 05 8f 34 20 00 	mov    %rax,0x20348f(%rip)        # 604480 <buf_offset>
  400ff1:	c6 05 10 41 20 00 63 	movb   $0x63,0x204110(%rip)        # 605108 <target_prefix>
  400ff8:	83 3d 89 34 20 00 00 	cmpl   $0x0,0x203489(%rip)        # 604488 <notify>
  400fff:	0f 84 b1 00 00 00    	je     4010b6 <initialize_target+0x146>
  401005:	83 3d dc 34 20 00 00 	cmpl   $0x0,0x2034dc(%rip)        # 6044e8 <is_checker>
  40100c:	0f 85 a4 00 00 00    	jne    4010b6 <initialize_target+0x146>
  401012:	be 00 01 00 00       	mov    $0x100,%esi
  401017:	48 89 e7             	mov    %rsp,%rdi
  40101a:	e8 81 fd ff ff       	callq  400da0 <gethostname@plt>
  40101f:	85 c0                	test   %eax,%eax
  401021:	74 25                	je     401048 <initialize_target+0xd8>
  401023:	bf 80 2c 40 00       	mov    $0x402c80,%edi
  401028:	e8 03 fc ff ff       	callq  400c30 <puts@plt>
  40102d:	bf 08 00 00 00       	mov    $0x8,%edi
  401032:	e8 89 fd ff ff       	callq  400dc0 <exit@plt>
  401037:	48 89 e6             	mov    %rsp,%rsi
  40103a:	e8 a1 fb ff ff       	callq  400be0 <strcasecmp@plt>
  40103f:	85 c0                	test   %eax,%eax
  401041:	74 21                	je     401064 <initialize_target+0xf4>
  401043:	83 c3 01             	add    $0x1,%ebx
  401046:	eb 05                	jmp    40104d <initialize_target+0xdd>
  401048:	bb 00 00 00 00       	mov    $0x0,%ebx
  40104d:	48 63 c3             	movslq %ebx,%rax
  401050:	48 8b 3c c5 60 41 60 	mov    0x604160(,%rax,8),%rdi
  401057:	00 
  401058:	48 85 ff             	test   %rdi,%rdi
  40105b:	75 da                	jne    401037 <initialize_target+0xc7>
  40105d:	b8 00 00 00 00       	mov    $0x0,%eax
  401062:	eb 05                	jmp    401069 <initialize_target+0xf9>
  401064:	b8 01 00 00 00       	mov    $0x1,%eax
  401069:	85 c0                	test   %eax,%eax
  40106b:	75 17                	jne    401084 <initialize_target+0x114>
  40106d:	48 89 e6             	mov    %rsp,%rsi
  401070:	bf b8 2c 40 00       	mov    $0x402cb8,%edi
  401075:	e8 e6 fb ff ff       	callq  400c60 <printf@plt>
  40107a:	bf 08 00 00 00       	mov    $0x8,%edi
  40107f:	e8 3c fd ff ff       	callq  400dc0 <exit@plt>
  401084:	48 8d bc 24 00 01 00 	lea    0x100(%rsp),%rdi
  40108b:	00 
  40108c:	e8 e9 17 00 00       	callq  40287a <init_driver>
  401091:	85 c0                	test   %eax,%eax
  401093:	79 21                	jns    4010b6 <initialize_target+0x146>
  401095:	48 8d b4 24 00 01 00 	lea    0x100(%rsp),%rsi
  40109c:	00 
  40109d:	bf f8 2c 40 00       	mov    $0x402cf8,%edi
  4010a2:	b8 00 00 00 00       	mov    $0x0,%eax
  4010a7:	e8 b4 fb ff ff       	callq  400c60 <printf@plt>
  4010ac:	bf 08 00 00 00       	mov    $0x8,%edi
  4010b1:	e8 0a fd ff ff       	callq  400dc0 <exit@plt>
  4010b6:	48 81 c4 08 21 00 00 	add    $0x2108,%rsp
  4010bd:	5b                   	pop    %rbx
  4010be:	5d                   	pop    %rbp
  4010bf:	c3                   	retq   

00000000004010c0 <main>:
  4010c0:	41 56                	push   %r14
  4010c2:	41 55                	push   %r13
  4010c4:	41 54                	push   %r12
  4010c6:	55                   	push   %rbp
  4010c7:	53                   	push   %rbx
  4010c8:	41 89 fc             	mov    %edi,%r12d
  4010cb:	48 89 f3             	mov    %rsi,%rbx
  4010ce:	be a1 1c 40 00       	mov    $0x401ca1,%esi
  4010d3:	bf 0b 00 00 00       	mov    $0xb,%edi
  4010d8:	e8 e3 fb ff ff       	callq  400cc0 <signal@plt>
  4010dd:	be 53 1c 40 00       	mov    $0x401c53,%esi
  4010e2:	bf 07 00 00 00       	mov    $0x7,%edi
  4010e7:	e8 d4 fb ff ff       	callq  400cc0 <signal@plt>
  4010ec:	be ef 1c 40 00       	mov    $0x401cef,%esi
  4010f1:	bf 04 00 00 00       	mov    $0x4,%edi
  4010f6:	e8 c5 fb ff ff       	callq  400cc0 <signal@plt>
  4010fb:	83 3d e6 33 20 00 00 	cmpl   $0x0,0x2033e6(%rip)        # 6044e8 <is_checker>
  401102:	74 20                	je     401124 <main+0x64>
  401104:	be 3d 1d 40 00       	mov    $0x401d3d,%esi
  401109:	bf 0e 00 00 00       	mov    $0xe,%edi
  40110e:	e8 ad fb ff ff       	callq  400cc0 <signal@plt>
  401113:	bf 05 00 00 00       	mov    $0x5,%edi
  401118:	e8 63 fb ff ff       	callq  400c80 <alarm@plt>
  40111d:	bd c2 2d 40 00       	mov    $0x402dc2,%ebp
  401122:	eb 05                	jmp    401129 <main+0x69>
  401124:	bd bd 2d 40 00       	mov    $0x402dbd,%ebp
  401129:	48 8b 05 70 33 20 00 	mov    0x203370(%rip),%rax        # 6044a0 <stdin@@GLIBC_2.2.5>
  401130:	48 89 05 99 33 20 00 	mov    %rax,0x203399(%rip)        # 6044d0 <infile>
  401137:	41 bd 00 00 00 00    	mov    $0x0,%r13d
  40113d:	41 be 00 00 00 00    	mov    $0x0,%r14d
  401143:	e9 b9 00 00 00       	jmpq   401201 <main+0x141>
  401148:	83 e8 61             	sub    $0x61,%eax
  40114b:	3c 10                	cmp    $0x10,%al
  40114d:	0f 87 93 00 00 00    	ja     4011e6 <main+0x126>
  401153:	0f b6 c0             	movzbl %al,%eax
  401156:	ff 24 c5 08 2e 40 00 	jmpq   *0x402e08(,%rax,8)
  40115d:	48 8b 3b             	mov    (%rbx),%rdi
  401160:	e8 8b fd ff ff       	callq  400ef0 <usage>
  401165:	be 5d 31 40 00       	mov    $0x40315d,%esi
  40116a:	48 8b 3d 37 33 20 00 	mov    0x203337(%rip),%rdi        # 6044a8 <optarg@@GLIBC_2.2.5>
  401171:	e8 fa fb ff ff       	callq  400d70 <fopen@plt>
  401176:	48 89 05 53 33 20 00 	mov    %rax,0x203353(%rip)        # 6044d0 <infile>
  40117d:	48 85 c0             	test   %rax,%rax
  401180:	75 7f                	jne    401201 <main+0x141>
  401182:	48 8b 15 1f 33 20 00 	mov    0x20331f(%rip),%rdx        # 6044a8 <optarg@@GLIBC_2.2.5>
  401189:	be ca 2d 40 00       	mov    $0x402dca,%esi
  40118e:	48 8b 3d 1b 33 20 00 	mov    0x20331b(%rip),%rdi        # 6044b0 <stderr@@GLIBC_2.2.5>
  401195:	e8 46 fb ff ff       	callq  400ce0 <fprintf@plt>
  40119a:	b8 01 00 00 00       	mov    $0x1,%eax
  40119f:	e9 d6 00 00 00       	jmpq   40127a <main+0x1ba>
  4011a4:	ba 10 00 00 00       	mov    $0x10,%edx
  4011a9:	be 00 00 00 00       	mov    $0x0,%esi
  4011ae:	48 8b 3d f3 32 20 00 	mov    0x2032f3(%rip),%rdi        # 6044a8 <optarg@@GLIBC_2.2.5>
  4011b5:	e8 d6 fb ff ff       	callq  400d90 <strtoul@plt>
  4011ba:	41 89 c6             	mov    %eax,%r14d
  4011bd:	eb 42                	jmp    401201 <main+0x141>
  4011bf:	ba 0a 00 00 00       	mov    $0xa,%edx
  4011c4:	be 00 00 00 00       	mov    $0x0,%esi
  4011c9:	48 8b 3d d8 32 20 00 	mov    0x2032d8(%rip),%rdi        # 6044a8 <optarg@@GLIBC_2.2.5>
  4011d0:	e8 1b fb ff ff       	callq  400cf0 <strtol@plt>
  4011d5:	41 89 c5             	mov    %eax,%r13d
  4011d8:	eb 27                	jmp    401201 <main+0x141>
  4011da:	c7 05 a4 32 20 00 00 	movl   $0x0,0x2032a4(%rip)        # 604488 <notify>
  4011e1:	00 00 00 
  4011e4:	eb 1b                	jmp    401201 <main+0x141>
  4011e6:	40 0f be f6          	movsbl %sil,%esi
  4011ea:	bf e7 2d 40 00       	mov    $0x402de7,%edi
  4011ef:	b8 00 00 00 00       	mov    $0x0,%eax
  4011f4:	e8 67 fa ff ff       	callq  400c60 <printf@plt>
  4011f9:	48 8b 3b             	mov    (%rbx),%rdi
  4011fc:	e8 ef fc ff ff       	callq  400ef0 <usage>
  401201:	48 89 ea             	mov    %rbp,%rdx
  401204:	48 89 de             	mov    %rbx,%rsi
  401207:	44 89 e7             	mov    %r12d,%edi
  40120a:	e8 71 fb ff ff       	callq  400d80 <getopt@plt>
  40120f:	89 c6                	mov    %eax,%esi
  401211:	3c ff                	cmp    $0xff,%al
  401213:	0f 85 2f ff ff ff    	jne    401148 <main+0x88>
  401219:	be 00 00 00 00       	mov    $0x0,%esi
  40121e:	44 89 ef             	mov    %r13d,%edi
  401221:	e8 4a fd ff ff       	callq  400f70 <initialize_target>
  401226:	83 3d bb 32 20 00 00 	cmpl   $0x0,0x2032bb(%rip)        # 6044e8 <is_checker>
  40122d:	74 25                	je     401254 <main+0x194>
  40122f:	44 3b 35 aa 32 20 00 	cmp    0x2032aa(%rip),%r14d        # 6044e0 <authkey>
  401236:	74 1c                	je     401254 <main+0x194>
  401238:	44 89 f6             	mov    %r14d,%esi
  40123b:	bf 20 2d 40 00       	mov    $0x402d20,%edi
  401240:	b8 00 00 00 00       	mov    $0x0,%eax
  401245:	e8 16 fa ff ff       	callq  400c60 <printf@plt>
  40124a:	b8 00 00 00 00       	mov    $0x0,%eax
  40124f:	e8 07 07 00 00       	callq  40195b <check_fail>
  401254:	8b 35 8a 32 20 00    	mov    0x20328a(%rip),%esi        # 6044e4 <cookie>
  40125a:	bf fa 2d 40 00       	mov    $0x402dfa,%edi
  40125f:	b8 00 00 00 00       	mov    $0x0,%eax
  401264:	e8 f7 f9 ff ff       	callq  400c60 <printf@plt>
  401269:	48 8b 3d 10 32 20 00 	mov    0x203210(%rip),%rdi        # 604480 <buf_offset>
  401270:	e8 97 0b 00 00       	callq  401e0c <stable_launch>
  401275:	b8 00 00 00 00       	mov    $0x0,%eax
  40127a:	5b                   	pop    %rbx
  40127b:	5d                   	pop    %rbp
  40127c:	41 5c                	pop    %r12
  40127e:	41 5d                	pop    %r13
  401280:	41 5e                	pop    %r14
  401282:	c3                   	retq   

0000000000401283 <scramble>:
  401283:	b8 00 00 00 00       	mov    $0x0,%eax
  401288:	eb 11                	jmp    40129b <scramble+0x18>
  40128a:	69 c8 e9 88 00 00    	imul   $0x88e9,%eax,%ecx
  401290:	01 f9                	add    %edi,%ecx
  401292:	89 c2                	mov    %eax,%edx
  401294:	89 4c 94 d0          	mov    %ecx,-0x30(%rsp,%rdx,4)
  401298:	83 c0 01             	add    $0x1,%eax
  40129b:	83 f8 09             	cmp    $0x9,%eax
  40129e:	76 ea                	jbe    40128a <scramble+0x7>
  4012a0:	8b 44 24 f0          	mov    -0x10(%rsp),%eax
  4012a4:	69 c0 0a ba 00 00    	imul   $0xba0a,%eax,%eax
  4012aa:	89 44 24 f0          	mov    %eax,-0x10(%rsp)
  4012ae:	8b 44 24 f4          	mov    -0xc(%rsp),%eax
  4012b2:	69 c0 c8 69 00 00    	imul   $0x69c8,%eax,%eax
  4012b8:	89 44 24 f4          	mov    %eax,-0xc(%rsp)
  4012bc:	8b 44 24 d4          	mov    -0x2c(%rsp),%eax
  4012c0:	69 c0 5e 30 00 00    	imul   $0x305e,%eax,%eax
  4012c6:	89 44 24 d4          	mov    %eax,-0x2c(%rsp)
  4012ca:	8b 44 24 d4          	mov    -0x2c(%rsp),%eax
  4012ce:	69 c0 6a 34 00 00    	imul   $0x346a,%eax,%eax
  4012d4:	89 44 24 d4          	mov    %eax,-0x2c(%rsp)
  4012d8:	8b 44 24 e0          	mov    -0x20(%rsp),%eax
  4012dc:	69 c0 15 b3 00 00    	imul   $0xb315,%eax,%eax
  4012e2:	89 44 24 e0          	mov    %eax,-0x20(%rsp)
  4012e6:	8b 44 24 dc          	mov    -0x24(%rsp),%eax
  4012ea:	69 c0 b8 d0 00 00    	imul   $0xd0b8,%eax,%eax
  4012f0:	89 44 24 dc          	mov    %eax,-0x24(%rsp)
  4012f4:	8b 44 24 e0          	mov    -0x20(%rsp),%eax
  4012f8:	69 c0 82 1f 00 00    	imul   $0x1f82,%eax,%eax
  4012fe:	89 44 24 e0          	mov    %eax,-0x20(%rsp)
  401302:	8b 44 24 d8          	mov    -0x28(%rsp),%eax
  401306:	69 c0 e2 3c 00 00    	imul   $0x3ce2,%eax,%eax
  40130c:	89 44 24 d8          	mov    %eax,-0x28(%rsp)
  401310:	8b 44 24 f0          	mov    -0x10(%rsp),%eax
  401314:	69 c0 11 42 00 00    	imul   $0x4211,%eax,%eax
  40131a:	89 44 24 f0          	mov    %eax,-0x10(%rsp)
  40131e:	8b 44 24 d4          	mov    -0x2c(%rsp),%eax
  401322:	69 c0 3a ef 00 00    	imul   $0xef3a,%eax,%eax
  401328:	89 44 24 d4          	mov    %eax,-0x2c(%rsp)
  40132c:	8b 44 24 f4          	mov    -0xc(%rsp),%eax
  401330:	69 c0 7f f7 00 00    	imul   $0xf77f,%eax,%eax
  401336:	89 44 24 f4          	mov    %eax,-0xc(%rsp)
  40133a:	8b 44 24 f4          	mov    -0xc(%rsp),%eax
  40133e:	69 c0 9d 13 00 00    	imul   $0x139d,%eax,%eax
  401344:	89 44 24 f4          	mov    %eax,-0xc(%rsp)
  401348:	8b 44 24 e8          	mov    -0x18(%rsp),%eax
  40134c:	69 c0 f2 26 00 00    	imul   $0x26f2,%eax,%eax
  401352:	89 44 24 e8          	mov    %eax,-0x18(%rsp)
  401356:	8b 44 24 ec          	mov    -0x14(%rsp),%eax
  40135a:	69 c0 9e 3f 00 00    	imul   $0x3f9e,%eax,%eax
  401360:	89 44 24 ec          	mov    %eax,-0x14(%rsp)
  401364:	8b 44 24 d0          	mov    -0x30(%rsp),%eax
  401368:	69 c0 45 20 00 00    	imul   $0x2045,%eax,%eax
  40136e:	89 44 24 d0          	mov    %eax,-0x30(%rsp)
  401372:	8b 44 24 dc          	mov    -0x24(%rsp),%eax
  401376:	69 c0 a3 c8 00 00    	imul   $0xc8a3,%eax,%eax
  40137c:	89 44 24 dc          	mov    %eax,-0x24(%rsp)
  401380:	8b 44 24 ec          	mov    -0x14(%rsp),%eax
  401384:	69 c0 75 a3 00 00    	imul   $0xa375,%eax,%eax
  40138a:	89 44 24 ec          	mov    %eax,-0x14(%rsp)
  40138e:	8b 44 24 d4          	mov    -0x2c(%rsp),%eax
  401392:	69 c0 87 c2 00 00    	imul   $0xc287,%eax,%eax
  401398:	89 44 24 d4          	mov    %eax,-0x2c(%rsp)
  40139c:	8b 44 24 dc          	mov    -0x24(%rsp),%eax
  4013a0:	69 c0 ce 93 00 00    	imul   $0x93ce,%eax,%eax
  4013a6:	89 44 24 dc          	mov    %eax,-0x24(%rsp)
  4013aa:	8b 44 24 d0          	mov    -0x30(%rsp),%eax
  4013ae:	69 c0 e8 41 00 00    	imul   $0x41e8,%eax,%eax
  4013b4:	89 44 24 d0          	mov    %eax,-0x30(%rsp)
  4013b8:	8b 44 24 d8          	mov    -0x28(%rsp),%eax
  4013bc:	69 c0 73 c0 00 00    	imul   $0xc073,%eax,%eax
  4013c2:	89 44 24 d8          	mov    %eax,-0x28(%rsp)
  4013c6:	8b 44 24 dc          	mov    -0x24(%rsp),%eax
  4013ca:	69 c0 1f 44 00 00    	imul   $0x441f,%eax,%eax
  4013d0:	89 44 24 dc          	mov    %eax,-0x24(%rsp)
  4013d4:	8b 44 24 ec          	mov    -0x14(%rsp),%eax
  4013d8:	69 c0 ae 19 00 00    	imul   $0x19ae,%eax,%eax
  4013de:	89 44 24 ec          	mov    %eax,-0x14(%rsp)
  4013e2:	8b 44 24 e8          	mov    -0x18(%rsp),%eax
  4013e6:	69 c0 19 30 00 00    	imul   $0x3019,%eax,%eax
  4013ec:	89 44 24 e8          	mov    %eax,-0x18(%rsp)
  4013f0:	8b 44 24 f4          	mov    -0xc(%rsp),%eax
  4013f4:	69 c0 9e 47 00 00    	imul   $0x479e,%eax,%eax
  4013fa:	89 44 24 f4          	mov    %eax,-0xc(%rsp)
  4013fe:	8b 44 24 ec          	mov    -0x14(%rsp),%eax
  401402:	69 c0 6b a7 00 00    	imul   $0xa76b,%eax,%eax
  401408:	89 44 24 ec          	mov    %eax,-0x14(%rsp)
  40140c:	8b 44 24 d0          	mov    -0x30(%rsp),%eax
  401410:	69 c0 4f d9 00 00    	imul   $0xd94f,%eax,%eax
  401416:	89 44 24 d0          	mov    %eax,-0x30(%rsp)
  40141a:	8b 44 24 e4          	mov    -0x1c(%rsp),%eax
  40141e:	69 c0 8a 83 00 00    	imul   $0x838a,%eax,%eax
  401424:	89 44 24 e4          	mov    %eax,-0x1c(%rsp)
  401428:	8b 44 24 e4          	mov    -0x1c(%rsp),%eax
  40142c:	69 c0 26 a6 00 00    	imul   $0xa626,%eax,%eax
  401432:	89 44 24 e4          	mov    %eax,-0x1c(%rsp)
  401436:	8b 44 24 f4          	mov    -0xc(%rsp),%eax
  40143a:	69 c0 fa 3f 00 00    	imul   $0x3ffa,%eax,%eax
  401440:	89 44 24 f4          	mov    %eax,-0xc(%rsp)
  401444:	8b 44 24 dc          	mov    -0x24(%rsp),%eax
  401448:	69 c0 15 37 00 00    	imul   $0x3715,%eax,%eax
  40144e:	89 44 24 dc          	mov    %eax,-0x24(%rsp)
  401452:	8b 44 24 e8          	mov    -0x18(%rsp),%eax
  401456:	69 c0 bb a0 00 00    	imul   $0xa0bb,%eax,%eax
  40145c:	89 44 24 e8          	mov    %eax,-0x18(%rsp)
  401460:	8b 44 24 f0          	mov    -0x10(%rsp),%eax
  401464:	69 c0 08 3b 00 00    	imul   $0x3b08,%eax,%eax
  40146a:	89 44 24 f0          	mov    %eax,-0x10(%rsp)
  40146e:	8b 44 24 dc          	mov    -0x24(%rsp),%eax
  401472:	69 c0 5e ae 00 00    	imul   $0xae5e,%eax,%eax
  401478:	89 44 24 dc          	mov    %eax,-0x24(%rsp)
  40147c:	8b 44 24 d8          	mov    -0x28(%rsp),%eax
  401480:	69 c0 33 5a 00 00    	imul   $0x5a33,%eax,%eax
  401486:	89 44 24 d8          	mov    %eax,-0x28(%rsp)
  40148a:	8b 44 24 d0          	mov    -0x30(%rsp),%eax
  40148e:	69 c0 bb 15 00 00    	imul   $0x15bb,%eax,%eax
  401494:	89 44 24 d0          	mov    %eax,-0x30(%rsp)
  401498:	8b 44 24 d8          	mov    -0x28(%rsp),%eax
  40149c:	69 c0 e7 02 00 00    	imul   $0x2e7,%eax,%eax
  4014a2:	89 44 24 d8          	mov    %eax,-0x28(%rsp)
  4014a6:	8b 44 24 e4          	mov    -0x1c(%rsp),%eax
  4014aa:	69 c0 9b fa 00 00    	imul   $0xfa9b,%eax,%eax
  4014b0:	89 44 24 e4          	mov    %eax,-0x1c(%rsp)
  4014b4:	8b 44 24 d0          	mov    -0x30(%rsp),%eax
  4014b8:	69 c0 dc da 00 00    	imul   $0xdadc,%eax,%eax
  4014be:	89 44 24 d0          	mov    %eax,-0x30(%rsp)
  4014c2:	8b 44 24 f0          	mov    -0x10(%rsp),%eax
  4014c6:	69 c0 55 78 00 00    	imul   $0x7855,%eax,%eax
  4014cc:	89 44 24 f0          	mov    %eax,-0x10(%rsp)
  4014d0:	8b 44 24 d8          	mov    -0x28(%rsp),%eax
  4014d4:	69 c0 08 4a 00 00    	imul   $0x4a08,%eax,%eax
  4014da:	89 44 24 d8          	mov    %eax,-0x28(%rsp)
  4014de:	8b 44 24 d4          	mov    -0x2c(%rsp),%eax
  4014e2:	69 c0 97 61 00 00    	imul   $0x6197,%eax,%eax
  4014e8:	89 44 24 d4          	mov    %eax,-0x2c(%rsp)
  4014ec:	8b 44 24 e4          	mov    -0x1c(%rsp),%eax
  4014f0:	69 c0 c8 da 00 00    	imul   $0xdac8,%eax,%eax
  4014f6:	89 44 24 e4          	mov    %eax,-0x1c(%rsp)
  4014fa:	8b 44 24 d4          	mov    -0x2c(%rsp),%eax
  4014fe:	69 c0 98 23 00 00    	imul   $0x2398,%eax,%eax
  401504:	89 44 24 d4          	mov    %eax,-0x2c(%rsp)
  401508:	8b 44 24 d8          	mov    -0x28(%rsp),%eax
  40150c:	69 c0 4a a8 00 00    	imul   $0xa84a,%eax,%eax
  401512:	89 44 24 d8          	mov    %eax,-0x28(%rsp)
  401516:	8b 44 24 d0          	mov    -0x30(%rsp),%eax
  40151a:	69 c0 5a 47 00 00    	imul   $0x475a,%eax,%eax
  401520:	89 44 24 d0          	mov    %eax,-0x30(%rsp)
  401524:	8b 44 24 ec          	mov    -0x14(%rsp),%eax
  401528:	69 c0 30 6c 00 00    	imul   $0x6c30,%eax,%eax
  40152e:	89 44 24 ec          	mov    %eax,-0x14(%rsp)
  401532:	8b 44 24 d0          	mov    -0x30(%rsp),%eax
  401536:	69 c0 ea b9 00 00    	imul   $0xb9ea,%eax,%eax
  40153c:	89 44 24 d0          	mov    %eax,-0x30(%rsp)
  401540:	8b 44 24 e8          	mov    -0x18(%rsp),%eax
  401544:	69 c0 57 4b 00 00    	imul   $0x4b57,%eax,%eax
  40154a:	89 44 24 e8          	mov    %eax,-0x18(%rsp)
  40154e:	8b 44 24 d0          	mov    -0x30(%rsp),%eax
  401552:	69 c0 0f 76 00 00    	imul   $0x760f,%eax,%eax
  401558:	89 44 24 d0          	mov    %eax,-0x30(%rsp)
  40155c:	8b 44 24 d0          	mov    -0x30(%rsp),%eax
  401560:	69 c0 8f 58 00 00    	imul   $0x588f,%eax,%eax
  401566:	89 44 24 d0          	mov    %eax,-0x30(%rsp)
  40156a:	8b 44 24 f0          	mov    -0x10(%rsp),%eax
  40156e:	69 c0 30 c0 00 00    	imul   $0xc030,%eax,%eax
  401574:	89 44 24 f0          	mov    %eax,-0x10(%rsp)
  401578:	8b 44 24 ec          	mov    -0x14(%rsp),%eax
  40157c:	69 c0 a5 e5 00 00    	imul   $0xe5a5,%eax,%eax
  401582:	89 44 24 ec          	mov    %eax,-0x14(%rsp)
  401586:	8b 44 24 dc          	mov    -0x24(%rsp),%eax
  40158a:	69 c0 0b 78 00 00    	imul   $0x780b,%eax,%eax
  401590:	89 44 24 dc          	mov    %eax,-0x24(%rsp)
  401594:	8b 44 24 f4          	mov    -0xc(%rsp),%eax
  401598:	69 c0 80 e5 00 00    	imul   $0xe580,%eax,%eax
  40159e:	89 44 24 f4          	mov    %eax,-0xc(%rsp)
  4015a2:	8b 44 24 d0          	mov    -0x30(%rsp),%eax
  4015a6:	69 c0 fb e2 00 00    	imul   $0xe2fb,%eax,%eax
  4015ac:	89 44 24 d0          	mov    %eax,-0x30(%rsp)
  4015b0:	8b 44 24 f0          	mov    -0x10(%rsp),%eax
  4015b4:	69 c0 21 10 00 00    	imul   $0x1021,%eax,%eax
  4015ba:	89 44 24 f0          	mov    %eax,-0x10(%rsp)
  4015be:	8b 44 24 e0          	mov    -0x20(%rsp),%eax
  4015c2:	69 c0 df 52 00 00    	imul   $0x52df,%eax,%eax
  4015c8:	89 44 24 e0          	mov    %eax,-0x20(%rsp)
  4015cc:	8b 44 24 d4          	mov    -0x2c(%rsp),%eax
  4015d0:	69 c0 b3 29 00 00    	imul   $0x29b3,%eax,%eax
  4015d6:	89 44 24 d4          	mov    %eax,-0x2c(%rsp)
  4015da:	8b 44 24 f0          	mov    -0x10(%rsp),%eax
  4015de:	69 c0 d9 6b 00 00    	imul   $0x6bd9,%eax,%eax
  4015e4:	89 44 24 f0          	mov    %eax,-0x10(%rsp)
  4015e8:	8b 44 24 f4          	mov    -0xc(%rsp),%eax
  4015ec:	69 c0 09 da 00 00    	imul   $0xda09,%eax,%eax
  4015f2:	89 44 24 f4          	mov    %eax,-0xc(%rsp)
  4015f6:	8b 44 24 dc          	mov    -0x24(%rsp),%eax
  4015fa:	69 c0 5e b1 00 00    	imul   $0xb15e,%eax,%eax
  401600:	89 44 24 dc          	mov    %eax,-0x24(%rsp)
  401604:	8b 44 24 f0          	mov    -0x10(%rsp),%eax
  401608:	69 c0 49 9b 00 00    	imul   $0x9b49,%eax,%eax
  40160e:	89 44 24 f0          	mov    %eax,-0x10(%rsp)
  401612:	8b 44 24 e8          	mov    -0x18(%rsp),%eax
  401616:	69 c0 72 ed 00 00    	imul   $0xed72,%eax,%eax
  40161c:	89 44 24 e8          	mov    %eax,-0x18(%rsp)
  401620:	8b 44 24 f4          	mov    -0xc(%rsp),%eax
  401624:	69 c0 91 d3 00 00    	imul   $0xd391,%eax,%eax
  40162a:	89 44 24 f4          	mov    %eax,-0xc(%rsp)
  40162e:	8b 44 24 d0          	mov    -0x30(%rsp),%eax
  401632:	69 c0 2b 8c 00 00    	imul   $0x8c2b,%eax,%eax
  401638:	89 44 24 d0          	mov    %eax,-0x30(%rsp)
  40163c:	8b 44 24 d4          	mov    -0x2c(%rsp),%eax
  401640:	69 c0 4c ef 00 00    	imul   $0xef4c,%eax,%eax
  401646:	89 44 24 d4          	mov    %eax,-0x2c(%rsp)
  40164a:	8b 44 24 e4          	mov    -0x1c(%rsp),%eax
  40164e:	69 c0 96 87 00 00    	imul   $0x8796,%eax,%eax
  401654:	89 44 24 e4          	mov    %eax,-0x1c(%rsp)
  401658:	8b 44 24 e4          	mov    -0x1c(%rsp),%eax
  40165c:	69 c0 27 07 00 00    	imul   $0x727,%eax,%eax
  401662:	89 44 24 e4          	mov    %eax,-0x1c(%rsp)
  401666:	8b 44 24 f4          	mov    -0xc(%rsp),%eax
  40166a:	69 c0 72 95 00 00    	imul   $0x9572,%eax,%eax
  401670:	89 44 24 f4          	mov    %eax,-0xc(%rsp)
  401674:	8b 44 24 d4          	mov    -0x2c(%rsp),%eax
  401678:	69 c0 02 f0 00 00    	imul   $0xf002,%eax,%eax
  40167e:	89 44 24 d4          	mov    %eax,-0x2c(%rsp)
  401682:	8b 44 24 e8          	mov    -0x18(%rsp),%eax
  401686:	69 c0 2f 1c 00 00    	imul   $0x1c2f,%eax,%eax
  40168c:	89 44 24 e8          	mov    %eax,-0x18(%rsp)
  401690:	8b 44 24 e0          	mov    -0x20(%rsp),%eax
  401694:	69 c0 ff bc 00 00    	imul   $0xbcff,%eax,%eax
  40169a:	89 44 24 e0          	mov    %eax,-0x20(%rsp)
  40169e:	8b 44 24 f0          	mov    -0x10(%rsp),%eax
  4016a2:	69 c0 0e eb 00 00    	imul   $0xeb0e,%eax,%eax
  4016a8:	89 44 24 f0          	mov    %eax,-0x10(%rsp)
  4016ac:	8b 44 24 f4          	mov    -0xc(%rsp),%eax
  4016b0:	69 c0 85 e5 00 00    	imul   $0xe585,%eax,%eax
  4016b6:	89 44 24 f4          	mov    %eax,-0xc(%rsp)
  4016ba:	8b 44 24 d8          	mov    -0x28(%rsp),%eax
  4016be:	69 c0 b0 b8 00 00    	imul   $0xb8b0,%eax,%eax
  4016c4:	89 44 24 d8          	mov    %eax,-0x28(%rsp)
  4016c8:	8b 44 24 f0          	mov    -0x10(%rsp),%eax
  4016cc:	69 c0 1a 0a 00 00    	imul   $0xa1a,%eax,%eax
  4016d2:	89 44 24 f0          	mov    %eax,-0x10(%rsp)
  4016d6:	8b 44 24 f4          	mov    -0xc(%rsp),%eax
  4016da:	69 c0 c8 05 00 00    	imul   $0x5c8,%eax,%eax
  4016e0:	89 44 24 f4          	mov    %eax,-0xc(%rsp)
  4016e4:	8b 44 24 d8          	mov    -0x28(%rsp),%eax
  4016e8:	69 c0 57 d5 00 00    	imul   $0xd557,%eax,%eax
  4016ee:	89 44 24 d8          	mov    %eax,-0x28(%rsp)
  4016f2:	8b 44 24 e8          	mov    -0x18(%rsp),%eax
  4016f6:	69 c0 04 8c 00 00    	imul   $0x8c04,%eax,%eax
  4016fc:	89 44 24 e8          	mov    %eax,-0x18(%rsp)
  401700:	8b 44 24 e4          	mov    -0x1c(%rsp),%eax
  401704:	69 c0 bb 56 00 00    	imul   $0x56bb,%eax,%eax
  40170a:	89 44 24 e4          	mov    %eax,-0x1c(%rsp)
  40170e:	8b 44 24 dc          	mov    -0x24(%rsp),%eax
  401712:	69 c0 08 d5 00 00    	imul   $0xd508,%eax,%eax
  401718:	89 44 24 dc          	mov    %eax,-0x24(%rsp)
  40171c:	8b 44 24 f0          	mov    -0x10(%rsp),%eax
  401720:	69 c0 8a 64 00 00    	imul   $0x648a,%eax,%eax
  401726:	89 44 24 f0          	mov    %eax,-0x10(%rsp)
  40172a:	ba 00 00 00 00       	mov    $0x0,%edx
  40172f:	b8 00 00 00 00       	mov    $0x0,%eax
  401734:	eb 0b                	jmp    401741 <scramble+0x4be>
  401736:	89 d1                	mov    %edx,%ecx
  401738:	8b 4c 8c d0          	mov    -0x30(%rsp,%rcx,4),%ecx
  40173c:	01 c8                	add    %ecx,%eax
  40173e:	83 c2 01             	add    $0x1,%edx
  401741:	83 fa 09             	cmp    $0x9,%edx
  401744:	76 f0                	jbe    401736 <scramble+0x4b3>
  401746:	f3 c3                	repz retq 

0000000000401748 <getbuf>:
  401748:	48 83 ec 28          	sub    $0x28,%rsp			//subs 40 bytes of buffer
  40174c:	48 89 e7             	mov    %rsp,%rdi			//rsp = value of the cookie
  40174f:	e8 36 02 00 00       	callq  40198a <Gets>			//needs to call touch1 instead
  401754:	b8 01 00 00 00       	mov    $0x1,%eax
  401759:	48 83 c4 28          	add    $0x28,%rsp
  40175d:	c3                   	retq   

000000000040175e <touch1>:
  40175e:	48 83 ec 08          	sub    $0x8,%rsp
  401762:	c7 05 70 2d 20 00 01 	movl   $0x1,0x202d70(%rip)        # 6044dc <vlevel>
  401769:	00 00 00 
  40176c:	bf b3 2f 40 00       	mov    $0x402fb3,%edi
  401771:	e8 ba f4 ff ff       	callq  400c30 <puts@plt>
  401776:	bf 01 00 00 00       	mov    $0x1,%edi
  40177b:	e8 f9 03 00 00       	callq  401b79 <validate>		//validates phase
  401780:	bf 00 00 00 00       	mov    $0x0,%edi
  401785:	e8 36 f6 ff ff       	callq  400dc0 <exit@plt>

000000000040178a <touch2>:
  40178a:	48 83 ec 08          	sub    $0x8,%tsp			//subs 8 bytes of storage
  40178e:	89 fe                	mov    %edi,%esi
  401790:	c7 05 42 2d 20 00 02 	movl   $0x2,0x202d42(%rip)        # 6044dc <vlevel>
  401797:	00 00 00 
  40179a:	3b 3d 44 2d 20 00    	cmp    0x202d44(%rip),%edi        # 6044e4 <cookie>
  4017a0:	75 1b                	jne    4017bd <touch2+0x33>
  4017a2:	bf d8 2f 40 00       	mov    $0x402fd8,%edi
  4017a7:	b8 00 00 00 00       	mov    $0x0,%eax
  4017ac:	e8 af f4 ff ff       	callq  400c60 <printf@plt>
  4017b1:	bf 02 00 00 00       	mov    $0x2,%edi
  4017b6:	e8 be 03 00 00       	callq  401b79 <validate>		//validates phase
  4017bb:	eb 19                	jmp    4017d6 <touch2+0x4c>
  4017bd:	bf 00 30 40 00       	mov    $0x403000,%edi
  4017c2:	b8 00 00 00 00       	mov    $0x0,%eax
  4017c7:	e8 94 f4 ff ff       	callq  400c60 <printf@plt>
  4017cc:	bf 02 00 00 00       	mov    $0x2,%edi
  4017d1:	e8 55 04 00 00       	callq  401c2b <fail>
  4017d6:	bf 00 00 00 00       	mov    $0x0,%edi
  4017db:	e8 e0 f5 ff ff       	callq  400dc0 <exit@plt>

00000000004017e0 <hexmatch>:
  4017e0:	41 54                	push   %r12
  4017e2:	55                   	push   %rbp
  4017e3:	53                   	push   %rbx
  4017e4:	48 83 ec 70          	sub    $0x70,%rsp
  4017e8:	41 89 fc             	mov    %edi,%r12d
  4017eb:	48 89 f5             	mov    %rsi,%rbp
  4017ee:	e8 2d f5 ff ff       	callq  400d20 <random@plt>
  4017f3:	48 89 c1             	mov    %rax,%rcx
  4017f6:	48 ba 0b d7 a3 70 3d 	movabs $0xa3d70a3d70a3d70b,%rdx
  4017fd:	0a d7 a3 
  401800:	48 f7 ea             	imul   %rdx
  401803:	48 8d 04 0a          	lea    (%rdx,%rcx,1),%rax
  401807:	48 c1 f8 06          	sar    $0x6,%rax
  40180b:	48 89 ce             	mov    %rcx,%rsi
  40180e:	48 c1 fe 3f          	sar    $0x3f,%rsi
  401812:	48 29 f0             	sub    %rsi,%rax
  401815:	48 8d 04 80          	lea    (%rax,%rax,4),%rax
  401819:	48 8d 04 80          	lea    (%rax,%rax,4),%rax
  40181d:	48 c1 e0 02          	shl    $0x2,%rax
  401821:	48 29 c1             	sub    %rax,%rcx
  401824:	48 8d 1c 0c          	lea    (%rsp,%rcx,1),%rbx
  401828:	44 89 e2             	mov    %r12d,%edx
  40182b:	be d0 2f 40 00       	mov    $0x402fd0,%esi
  401830:	48 89 df             	mov    %rbx,%rdi
  401833:	b8 00 00 00 00       	mov    $0x0,%eax
  401838:	e8 73 f5 ff ff       	callq  400db0 <sprintf@plt>
  40183d:	ba 09 00 00 00       	mov    $0x9,%edx
  401842:	48 89 de             	mov    %rbx,%rsi
  401845:	48 89 ef             	mov    %rbp,%rdi
  401848:	e8 c3 f3 ff ff       	callq  400c10 <strncmp@plt>
  40184d:	85 c0                	test   %eax,%eax
  40184f:	0f 94 c0             	sete   %al
  401852:	0f b6 c0             	movzbl %al,%eax
  401855:	48 83 c4 70          	add    $0x70,%rsp
  401859:	5b                   	pop    %rbx
  40185a:	5d                   	pop    %rbp
  40185b:	41 5c                	pop    %r12
  40185d:	c3                   	retq   

000000000040185e <touch3>:						//56 bytes
  40185e:	53                   	push   %rbx
  40185f:	48 89 fb             	mov    %rdi,%rbx
  401862:	c7 05 70 2c 20 00 03 	movl   $0x3,0x202c70(%rip)        # 6044dc <vlevel>
  401869:	00 00 00 
  40186c:	48 89 fe             	mov    %rdi,%rsi
  40186f:	8b 3d 6f 2c 20 00    	mov    0x202c6f(%rip),%edi        # 6044e4 <cookie>
  401875:	e8 66 ff ff ff       	callq  4017e0 <hexmatch>
  40187a:	85 c0                	test   %eax,%eax
  40187c:	74 1e                	je     40189c <touch3+0x3e>
  40187e:	48 89 de             	mov    %rbx,%rsi
  401881:	bf 28 30 40 00       	mov    $0x403028,%edi
  401886:	b8 00 00 00 00       	mov    $0x0,%eax
  40188b:	e8 d0 f3 ff ff       	callq  400c60 <printf@plt>
  401890:	bf 03 00 00 00       	mov    $0x3,%edi
  401895:	e8 df 02 00 00       	callq  401b79 <validate>
  40189a:	eb 1c                	jmp    4018b8 <touch3+0x5a>
  40189c:	48 89 de             	mov    %rbx,%rsi
  40189f:	bf 50 30 40 00       	mov    $0x403050,%edi
  4018a4:	b8 00 00 00 00       	mov    $0x0,%eax
  4018a9:	e8 b2 f3 ff ff       	callq  400c60 <printf@plt>
  4018ae:	bf 03 00 00 00       	mov    $0x3,%edi
  4018b3:	e8 73 03 00 00       	callq  401c2b <fail>
  4018b8:	bf 00 00 00 00       	mov    $0x0,%edi
  4018bd:	e8 fe f4 ff ff       	callq  400dc0 <exit@plt>

00000000004018c2 <test>:
  4018c2:	48 83 ec 08          	sub    $0x8,%rsp
  4018c6:	b8 00 00 00 00       	mov    $0x0,%eax
  4018cb:	e8 78 fe ff ff       	callq  401748 <getbuf>
  4018d0:	89 c6                	mov    %eax,%esi
  4018d2:	bf 78 30 40 00       	mov    $0x403078,%edi
  4018d7:	b8 00 00 00 00       	mov    $0x0,%eax
  4018dc:	e8 7f f3 ff ff       	callq  400c60 <printf@plt>
  4018e1:	48 83 c4 08          	add    $0x8,%rsp
  4018e5:	c3                   	retq   
  4018e6:	66 2e 0f 1f 84 00 00 	nopw   %cs:0x0(%rax,%rax,1)
  4018ed:	00 00 00 

00000000004018f0 <save_char>:
  4018f0:	8b 05 0e 38 20 00    	mov    0x20380e(%rip),%eax        # 605104 <gets_cnt>
  4018f6:	3d ff 03 00 00       	cmp    $0x3ff,%eax
  4018fb:	7f 49                	jg     401946 <save_char+0x56>
  4018fd:	8d 14 40             	lea    (%rax,%rax,2),%edx
  401900:	89 f9                	mov    %edi,%ecx
  401902:	c0 e9 04             	shr    $0x4,%cl
  401905:	83 e1 0f             	and    $0xf,%ecx
  401908:	0f b6 b1 a0 33 40 00 	movzbl 0x4033a0(%rcx),%esi
  40190f:	48 63 ca             	movslq %edx,%rcx
  401912:	40 88 b1 00 45 60 00 	mov    %sil,0x604500(%rcx)
  401919:	8d 4a 01             	lea    0x1(%rdx),%ecx
  40191c:	83 e7 0f             	and    $0xf,%edi
  40191f:	0f b6 b7 a0 33 40 00 	movzbl 0x4033a0(%rdi),%esi
  401926:	48 63 c9             	movslq %ecx,%rcx
  401929:	40 88 b1 00 45 60 00 	mov    %sil,0x604500(%rcx)
  401930:	83 c2 02             	add    $0x2,%edx
  401933:	48 63 d2             	movslq %edx,%rdx
  401936:	c6 82 00 45 60 00 20 	movb   $0x20,0x604500(%rdx)
  40193d:	83 c0 01             	add    $0x1,%eax
  401940:	89 05 be 37 20 00    	mov    %eax,0x2037be(%rip)        # 605104 <gets_cnt>
  401946:	f3 c3                	repz retq 

0000000000401948 <save_term>:
  401948:	8b 05 b6 37 20 00    	mov    0x2037b6(%rip),%eax        # 605104 <gets_cnt>
  40194e:	8d 04 40             	lea    (%rax,%rax,2),%eax
  401951:	48 98                	cltq   
  401953:	c6 80 00 45 60 00 00 	movb   $0x0,0x604500(%rax)
  40195a:	c3                   	retq   

000000000040195b <check_fail>:
  40195b:	48 83 ec 08          	sub    $0x8,%rsp
  40195f:	0f be 35 a2 37 20 00 	movsbl 0x2037a2(%rip),%esi        # 605108 <target_prefix>
  401966:	b9 00 45 60 00       	mov    $0x604500,%ecx
  40196b:	8b 15 67 2b 20 00    	mov    0x202b67(%rip),%edx        # 6044d8 <check_level>
  401971:	bf 9b 30 40 00       	mov    $0x40309b,%edi
  401976:	b8 00 00 00 00       	mov    $0x0,%eax
  40197b:	e8 e0 f2 ff ff       	callq  400c60 <printf@plt>
  401980:	bf 01 00 00 00       	mov    $0x1,%edi
  401985:	e8 36 f4 ff ff       	callq  400dc0 <exit@plt>

000000000040198a <Gets>:
  40198a:	41 54                	push   %r12
  40198c:	55                   	push   %rbp
  40198d:	53                   	push   %rbx
  40198e:	49 89 fc             	mov    %rdi,%r12
  401991:	c7 05 69 37 20 00 00 	movl   $0x0,0x203769(%rip)        # 605104 <gets_cnt>
  401998:	00 00 00 
  40199b:	48 89 fb             	mov    %rdi,%rbx
  40199e:	eb 11                	jmp    4019b1 <Gets+0x27>
  4019a0:	48 8d 6b 01          	lea    0x1(%rbx),%rbp
  4019a4:	88 03                	mov    %al,(%rbx)
  4019a6:	0f b6 f8             	movzbl %al,%edi
  4019a9:	e8 42 ff ff ff       	callq  4018f0 <save_char>
  4019ae:	48 89 eb             	mov    %rbp,%rbx
  4019b1:	48 8b 3d 18 2b 20 00 	mov    0x202b18(%rip),%rdi        # 6044d0 <infile>
  4019b8:	e8 73 f3 ff ff       	callq  400d30 <_IO_getc@plt>
  4019bd:	83 f8 ff             	cmp    $0xffffffff,%eax
  4019c0:	74 05                	je     4019c7 <Gets+0x3d>
  4019c2:	83 f8 0a             	cmp    $0xa,%eax
  4019c5:	75 d9                	jne    4019a0 <Gets+0x16>
  4019c7:	c6 03 00             	movb   $0x0,(%rbx)
  4019ca:	b8 00 00 00 00       	mov    $0x0,%eax
  4019cf:	e8 74 ff ff ff       	callq  401948 <save_term>
  4019d4:	4c 89 e0             	mov    %r12,%rax
  4019d7:	5b                   	pop    %rbx
  4019d8:	5d                   	pop    %rbp
  4019d9:	41 5c                	pop    %r12
  4019db:	c3                   	retq   

00000000004019dc <notify_server>:
  4019dc:	83 3d 05 2b 20 00 00 	cmpl   $0x0,0x202b05(%rip)        # 6044e8 <is_checker>
  4019e3:	0f 85 8e 01 00 00    	jne    401b77 <notify_server+0x19b>
  4019e9:	53                   	push   %rbx
  4019ea:	48 81 ec 10 40 00 00 	sub    $0x4010,%rsp
  4019f1:	89 fb                	mov    %edi,%ebx
  4019f3:	8b 05 0b 37 20 00    	mov    0x20370b(%rip),%eax        # 605104 <gets_cnt>
  4019f9:	83 c0 64             	add    $0x64,%eax
  4019fc:	3d 00 20 00 00       	cmp    $0x2000,%eax
  401a01:	7e 19                	jle    401a1c <notify_server+0x40>
  401a03:	bf d0 31 40 00       	mov    $0x4031d0,%edi
  401a08:	b8 00 00 00 00       	mov    $0x0,%eax
  401a0d:	e8 4e f2 ff ff       	callq  400c60 <printf@plt>
  401a12:	bf 01 00 00 00       	mov    $0x1,%edi
  401a17:	e8 a4 f3 ff ff       	callq  400dc0 <exit@plt>
  401a1c:	44 0f be 0d e4 36 20 	movsbl 0x2036e4(%rip),%r9d        # 605108 <target_prefix>
  401a23:	00 
  401a24:	83 3d 5d 2a 20 00 00 	cmpl   $0x0,0x202a5d(%rip)        # 604488 <notify>
  401a2b:	74 09                	je     401a36 <notify_server+0x5a>
  401a2d:	44 8b 05 ac 2a 20 00 	mov    0x202aac(%rip),%r8d        # 6044e0 <authkey>
  401a34:	eb 06                	jmp    401a3c <notify_server+0x60>
  401a36:	41 b8 ff ff ff ff    	mov    $0xffffffff,%r8d
  401a3c:	85 db                	test   %ebx,%ebx
  401a3e:	74 07                	je     401a47 <notify_server+0x6b>
  401a40:	b9 b1 30 40 00       	mov    $0x4030b1,%ecx
  401a45:	eb 05                	jmp    401a4c <notify_server+0x70>
  401a47:	b9 b6 30 40 00       	mov    $0x4030b6,%ecx
  401a4c:	48 c7 44 24 08 00 45 	movq   $0x604500,0x8(%rsp)
  401a53:	60 00 
  401a55:	89 34 24             	mov    %esi,(%rsp)
  401a58:	8b 15 ea 26 20 00    	mov    0x2026ea(%rip),%edx        # 604148 <target_id>
  401a5e:	be bb 30 40 00       	mov    $0x4030bb,%esi
  401a63:	48 8d bc 24 10 20 00 	lea    0x2010(%rsp),%rdi
  401a6a:	00 
  401a6b:	b8 00 00 00 00       	mov    $0x0,%eax
  401a70:	e8 3b f3 ff ff       	callq  400db0 <sprintf@plt>
  401a75:	83 3d 0c 2a 20 00 00 	cmpl   $0x0,0x202a0c(%rip)        # 604488 <notify>
  401a7c:	74 78                	je     401af6 <notify_server+0x11a>
  401a7e:	85 db                	test   %ebx,%ebx
  401a80:	74 68                	je     401aea <notify_server+0x10e>
  401a82:	4c 8d 4c 24 10       	lea    0x10(%rsp),%r9
  401a87:	41 b8 00 00 00 00    	mov    $0x0,%r8d
  401a8d:	48 8d 8c 24 10 20 00 	lea    0x2010(%rsp),%rcx
  401a94:	00 
  401a95:	48 8b 15 b4 26 20 00 	mov    0x2026b4(%rip),%rdx        # 604150 <lab>
  401a9c:	48 8b 35 b5 26 20 00 	mov    0x2026b5(%rip),%rsi        # 604158 <course>
  401aa3:	48 8b 3d 96 26 20 00 	mov    0x202696(%rip),%rdi        # 604140 <user_id>
  401aaa:	e8 94 0f 00 00       	callq  402a43 <driver_post>
  401aaf:	85 c0                	test   %eax,%eax
  401ab1:	79 1e                	jns    401ad1 <notify_server+0xf5>
  401ab3:	48 8d 74 24 10       	lea    0x10(%rsp),%rsi
  401ab8:	bf d7 30 40 00       	mov    $0x4030d7,%edi
  401abd:	b8 00 00 00 00       	mov    $0x0,%eax
  401ac2:	e8 99 f1 ff ff       	callq  400c60 <printf@plt>
  401ac7:	bf 01 00 00 00       	mov    $0x1,%edi
  401acc:	e8 ef f2 ff ff       	callq  400dc0 <exit@plt>
  401ad1:	bf 00 32 40 00       	mov    $0x403200,%edi
  401ad6:	e8 55 f1 ff ff       	callq  400c30 <puts@plt>
  401adb:	bf e3 30 40 00       	mov    $0x4030e3,%edi
  401ae0:	e8 4b f1 ff ff       	callq  400c30 <puts@plt>
  401ae5:	e9 85 00 00 00       	jmpq   401b6f <notify_server+0x193>
  401aea:	bf ed 30 40 00       	mov    $0x4030ed,%edi
  401aef:	e8 3c f1 ff ff       	callq  400c30 <puts@plt>
  401af4:	eb 79                	jmp    401b6f <notify_server+0x193>
  401af6:	85 db                	test   %ebx,%ebx
  401af8:	74 08                	je     401b02 <notify_server+0x126>
  401afa:	be b1 30 40 00       	mov    $0x4030b1,%esi
  401aff:	90                   	nop
  401b00:	eb 05                	jmp    401b07 <notify_server+0x12b>
  401b02:	be b6 30 40 00       	mov    $0x4030b6,%esi
  401b07:	bf 38 32 40 00       	mov    $0x403238,%edi
  401b0c:	b8 00 00 00 00       	mov    $0x0,%eax
  401b11:	e8 4a f1 ff ff       	callq  400c60 <printf@plt>
  401b16:	48 8b 35 23 26 20 00 	mov    0x202623(%rip),%rsi        # 604140 <user_id>
  401b1d:	bf f4 30 40 00       	mov    $0x4030f4,%edi
  401b22:	b8 00 00 00 00       	mov    $0x0,%eax
  401b27:	e8 34 f1 ff ff       	callq  400c60 <printf@plt>
  401b2c:	48 8b 35 25 26 20 00 	mov    0x202625(%rip),%rsi        # 604158 <course>
  401b33:	bf 01 31 40 00       	mov    $0x403101,%edi
  401b38:	b8 00 00 00 00       	mov    $0x0,%eax
  401b3d:	e8 1e f1 ff ff       	callq  400c60 <printf@plt>
  401b42:	48 8b 35 07 26 20 00 	mov    0x202607(%rip),%rsi        # 604150 <lab>
  401b49:	bf 0d 31 40 00       	mov    $0x40310d,%edi
  401b4e:	b8 00 00 00 00       	mov    $0x0,%eax
  401b53:	e8 08 f1 ff ff       	callq  400c60 <printf@plt>
  401b58:	48 8d b4 24 10 20 00 	lea    0x2010(%rsp),%rsi
  401b5f:	00 
  401b60:	bf 16 31 40 00       	mov    $0x403116,%edi
  401b65:	b8 00 00 00 00       	mov    $0x0,%eax
  401b6a:	e8 f1 f0 ff ff       	callq  400c60 <printf@plt>
  401b6f:	48 81 c4 10 40 00 00 	add    $0x4010,%rsp
  401b76:	5b                   	pop    %rbx
  401b77:	f3 c3                	repz retq 

0000000000401b79 <validate>:
  401b79:	53                   	push   %rbx
  401b7a:	89 fb                	mov    %edi,%ebx
  401b7c:	83 3d 65 29 20 00 00 	cmpl   $0x0,0x202965(%rip)        # 6044e8 <is_checker>
  401b83:	74 60                	je     401be5 <validate+0x6c>
  401b85:	39 3d 51 29 20 00    	cmp    %edi,0x202951(%rip)        # 6044dc <vlevel>
  401b8b:	74 14                	je     401ba1 <validate+0x28>
  401b8d:	bf 22 31 40 00       	mov    $0x403122,%edi
  401b92:	e8 99 f0 ff ff       	callq  400c30 <puts@plt>
  401b97:	b8 00 00 00 00       	mov    $0x0,%eax
  401b9c:	e8 ba fd ff ff       	callq  40195b <check_fail>
  401ba1:	8b 35 31 29 20 00    	mov    0x202931(%rip),%esi        # 6044d8 <check_level>
  401ba7:	39 fe                	cmp    %edi,%esi
  401ba9:	74 1b                	je     401bc6 <validate+0x4d>
  401bab:	89 fa                	mov    %edi,%edx
  401bad:	bf 60 32 40 00       	mov    $0x403260,%edi
  401bb2:	b8 00 00 00 00       	mov    $0x0,%eax
  401bb7:	e8 a4 f0 ff ff       	callq  400c60 <printf@plt>
  401bbc:	b8 00 00 00 00       	mov    $0x0,%eax
  401bc1:	e8 95 fd ff ff       	callq  40195b <check_fail>
  401bc6:	0f be 35 3b 35 20 00 	movsbl 0x20353b(%rip),%esi        # 605108 <target_prefix>
  401bcd:	b9 00 45 60 00       	mov    $0x604500,%ecx
  401bd2:	89 fa                	mov    %edi,%edx
  401bd4:	bf 40 31 40 00       	mov    $0x403140,%edi
  401bd9:	b8 00 00 00 00       	mov    $0x0,%eax
  401bde:	e8 7d f0 ff ff       	callq  400c60 <printf@plt>
  401be3:	eb 44                	jmp    401c29 <validate+0xb0>
  401be5:	39 3d f1 28 20 00    	cmp    %edi,0x2028f1(%rip)        # 6044dc <vlevel>
  401beb:	74 18                	je     401c05 <validate+0x8c>
  401bed:	bf 22 31 40 00       	mov    $0x403122,%edi
  401bf2:	e8 39 f0 ff ff       	callq  400c30 <puts@plt>
  401bf7:	89 de                	mov    %ebx,%esi
  401bf9:	bf 00 00 00 00       	mov    $0x0,%edi
  401bfe:	e8 d9 fd ff ff       	callq  4019dc <notify_server>
  401c03:	eb 24                	jmp    401c29 <validate+0xb0>
  401c05:	0f be 15 fc 34 20 00 	movsbl 0x2034fc(%rip),%edx        # 605108 <target_prefix>
  401c0c:	89 fe                	mov    %edi,%esi
  401c0e:	bf 88 32 40 00       	mov    $0x403288,%edi
  401c13:	b8 00 00 00 00       	mov    $0x0,%eax
  401c18:	e8 43 f0 ff ff       	callq  400c60 <printf@plt>
  401c1d:	89 de                	mov    %ebx,%esi
  401c1f:	bf 01 00 00 00       	mov    $0x1,%edi
  401c24:	e8 b3 fd ff ff       	callq  4019dc <notify_server>
  401c29:	5b                   	pop    %rbx
  401c2a:	c3                   	retq   

0000000000401c2b <fail>:
  401c2b:	48 83 ec 08          	sub    $0x8,%rsp
  401c2f:	83 3d b2 28 20 00 00 	cmpl   $0x0,0x2028b2(%rip)        # 6044e8 <is_checker>
  401c36:	74 0a                	je     401c42 <fail+0x17>
  401c38:	b8 00 00 00 00       	mov    $0x0,%eax
  401c3d:	e8 19 fd ff ff       	callq  40195b <check_fail>
  401c42:	89 fe                	mov    %edi,%esi
  401c44:	bf 00 00 00 00       	mov    $0x0,%edi
  401c49:	e8 8e fd ff ff       	callq  4019dc <notify_server>
  401c4e:	48 83 c4 08          	add    $0x8,%rsp
  401c52:	c3                   	retq   

0000000000401c53 <bushandler>:
  401c53:	48 83 ec 08          	sub    $0x8,%rsp
  401c57:	83 3d 8a 28 20 00 00 	cmpl   $0x0,0x20288a(%rip)        # 6044e8 <is_checker>
  401c5e:	74 14                	je     401c74 <bushandler+0x21>
  401c60:	bf 55 31 40 00       	mov    $0x403155,%edi
  401c65:	e8 c6 ef ff ff       	callq  400c30 <puts@plt>
  401c6a:	b8 00 00 00 00       	mov    $0x0,%eax
  401c6f:	e8 e7 fc ff ff       	callq  40195b <check_fail>
  401c74:	bf c0 32 40 00       	mov    $0x4032c0,%edi
  401c79:	e8 b2 ef ff ff       	callq  400c30 <puts@plt>
  401c7e:	bf 5f 31 40 00       	mov    $0x40315f,%edi
  401c83:	e8 a8 ef ff ff       	callq  400c30 <puts@plt>
  401c88:	be 00 00 00 00       	mov    $0x0,%esi
  401c8d:	bf 00 00 00 00       	mov    $0x0,%edi
  401c92:	e8 45 fd ff ff       	callq  4019dc <notify_server>
  401c97:	bf 01 00 00 00       	mov    $0x1,%edi
  401c9c:	e8 1f f1 ff ff       	callq  400dc0 <exit@plt>

0000000000401ca1 <seghandler>:
  401ca1:	48 83 ec 08          	sub    $0x8,%rsp
  401ca5:	83 3d 3c 28 20 00 00 	cmpl   $0x0,0x20283c(%rip)        # 6044e8 <is_checker>
  401cac:	74 14                	je     401cc2 <seghandler+0x21>
  401cae:	bf 75 31 40 00       	mov    $0x403175,%edi
  401cb3:	e8 78 ef ff ff       	callq  400c30 <puts@plt>
  401cb8:	b8 00 00 00 00       	mov    $0x0,%eax
  401cbd:	e8 99 fc ff ff       	callq  40195b <check_fail>
  401cc2:	bf e0 32 40 00       	mov    $0x4032e0,%edi
  401cc7:	e8 64 ef ff ff       	callq  400c30 <puts@plt>
  401ccc:	bf 5f 31 40 00       	mov    $0x40315f,%edi
  401cd1:	e8 5a ef ff ff       	callq  400c30 <puts@plt>
  401cd6:	be 00 00 00 00       	mov    $0x0,%esi
  401cdb:	bf 00 00 00 00       	mov    $0x0,%edi
  401ce0:	e8 f7 fc ff ff       	callq  4019dc <notify_server>
  401ce5:	bf 01 00 00 00       	mov    $0x1,%edi
  401cea:	e8 d1 f0 ff ff       	callq  400dc0 <exit@plt>

0000000000401cef <illegalhandler>:
  401cef:	48 83 ec 08          	sub    $0x8,%rsp
  401cf3:	83 3d ee 27 20 00 00 	cmpl   $0x0,0x2027ee(%rip)        # 6044e8 <is_checker>
  401cfa:	74 14                	je     401d10 <illegalhandler+0x21>
  401cfc:	bf 88 31 40 00       	mov    $0x403188,%edi
  401d01:	e8 2a ef ff ff       	callq  400c30 <puts@plt>
  401d06:	b8 00 00 00 00       	mov    $0x0,%eax
  401d0b:	e8 4b fc ff ff       	callq  40195b <check_fail>
  401d10:	bf 08 33 40 00       	mov    $0x403308,%edi
  401d15:	e8 16 ef ff ff       	callq  400c30 <puts@plt>
  401d1a:	bf 5f 31 40 00       	mov    $0x40315f,%edi
  401d1f:	e8 0c ef ff ff       	callq  400c30 <puts@plt>
  401d24:	be 00 00 00 00       	mov    $0x0,%esi
  401d29:	bf 00 00 00 00       	mov    $0x0,%edi
  401d2e:	e8 a9 fc ff ff       	callq  4019dc <notify_server>
  401d33:	bf 01 00 00 00       	mov    $0x1,%edi
  401d38:	e8 83 f0 ff ff       	callq  400dc0 <exit@plt>

0000000000401d3d <sigalrmhandler>:
  401d3d:	48 83 ec 08          	sub    $0x8,%rsp
  401d41:	83 3d a0 27 20 00 00 	cmpl   $0x0,0x2027a0(%rip)        # 6044e8 <is_checker>
  401d48:	74 14                	je     401d5e <sigalrmhandler+0x21>
  401d4a:	bf 9c 31 40 00       	mov    $0x40319c,%edi
  401d4f:	e8 dc ee ff ff       	callq  400c30 <puts@plt>
  401d54:	b8 00 00 00 00       	mov    $0x0,%eax
  401d59:	e8 fd fb ff ff       	callq  40195b <check_fail>
  401d5e:	be 05 00 00 00       	mov    $0x5,%esi
  401d63:	bf 38 33 40 00       	mov    $0x403338,%edi
  401d68:	b8 00 00 00 00       	mov    $0x0,%eax
  401d6d:	e8 ee ee ff ff       	callq  400c60 <printf@plt>
  401d72:	be 00 00 00 00       	mov    $0x0,%esi
  401d77:	bf 00 00 00 00       	mov    $0x0,%edi
  401d7c:	e8 5b fc ff ff       	callq  4019dc <notify_server>
  401d81:	bf 01 00 00 00       	mov    $0x1,%edi
  401d86:	e8 35 f0 ff ff       	callq  400dc0 <exit@plt>

0000000000401d8b <launch>:
  401d8b:	55                   	push   %rbp
  401d8c:	48 89 e5             	mov    %rsp,%rbp
  401d8f:	48 89 fa             	mov    %rdi,%rdx
  401d92:	48 8d 47 1e          	lea    0x1e(%rdi),%rax
  401d96:	48 83 e0 f0          	and    $0xfffffffffffffff0,%rax
  401d9a:	48 29 c4             	sub    %rax,%rsp
  401d9d:	48 8d 7c 24 0f       	lea    0xf(%rsp),%rdi
  401da2:	48 83 e7 f0          	and    $0xfffffffffffffff0,%rdi
  401da6:	be f4 00 00 00       	mov    $0xf4,%esi
  401dab:	e8 c0 ee ff ff       	callq  400c70 <memset@plt>
  401db0:	48 8b 05 e9 26 20 00 	mov    0x2026e9(%rip),%rax        # 6044a0 <stdin@@GLIBC_2.2.5>
  401db7:	48 39 05 12 27 20 00 	cmp    %rax,0x202712(%rip)        # 6044d0 <infile>
  401dbe:	75 0f                	jne    401dcf <launch+0x44>
  401dc0:	bf a4 31 40 00       	mov    $0x4031a4,%edi
  401dc5:	b8 00 00 00 00       	mov    $0x0,%eax
  401dca:	e8 91 ee ff ff       	callq  400c60 <printf@plt>
  401dcf:	c7 05 03 27 20 00 00 	movl   $0x0,0x202703(%rip)        # 6044dc <vlevel>
  401dd6:	00 00 00 
  401dd9:	b8 00 00 00 00       	mov    $0x0,%eax
  401dde:	e8 df fa ff ff       	callq  4018c2 <test>
  401de3:	83 3d fe 26 20 00 00 	cmpl   $0x0,0x2026fe(%rip)        # 6044e8 <is_checker>
  401dea:	74 14                	je     401e00 <launch+0x75>
  401dec:	bf b1 31 40 00       	mov    $0x4031b1,%edi
  401df1:	e8 3a ee ff ff       	callq  400c30 <puts@plt>
  401df6:	b8 00 00 00 00       	mov    $0x0,%eax
  401dfb:	e8 5b fb ff ff       	callq  40195b <check_fail>
  401e00:	bf bc 31 40 00       	mov    $0x4031bc,%edi
  401e05:	e8 26 ee ff ff       	callq  400c30 <puts@plt>
  401e0a:	c9                   	leaveq 
  401e0b:	c3                   	retq   

0000000000401e0c <stable_launch>:
  401e0c:	53                   	push   %rbx
  401e0d:	48 89 3d b4 26 20 00 	mov    %rdi,0x2026b4(%rip)        # 6044c8 <global_offset>
  401e14:	41 b9 00 00 00 00    	mov    $0x0,%r9d
  401e1a:	41 b8 00 00 00 00    	mov    $0x0,%r8d
  401e20:	b9 32 01 00 00       	mov    $0x132,%ecx
  401e25:	ba 07 00 00 00       	mov    $0x7,%edx
  401e2a:	be 00 00 10 00       	mov    $0x100000,%esi
  401e2f:	bf 00 60 58 55       	mov    $0x55586000,%edi
  401e34:	e8 17 ee ff ff       	callq  400c50 <mmap@plt>
  401e39:	48 89 c3             	mov    %rax,%rbx
  401e3c:	48 3d 00 60 58 55    	cmp    $0x55586000,%rax
  401e42:	74 32                	je     401e76 <stable_launch+0x6a>
  401e44:	be 00 00 10 00       	mov    $0x100000,%esi
  401e49:	48 89 c7             	mov    %rax,%rdi
  401e4c:	e8 ff ee ff ff       	callq  400d50 <munmap@plt>
  401e51:	ba 00 60 58 55       	mov    $0x55586000,%edx
  401e56:	be 70 33 40 00       	mov    $0x403370,%esi
  401e5b:	48 8b 3d 4e 26 20 00 	mov    0x20264e(%rip),%rdi        # 6044b0 <stderr@@GLIBC_2.2.5>
  401e62:	b8 00 00 00 00       	mov    $0x0,%eax
  401e67:	e8 74 ee ff ff       	callq  400ce0 <fprintf@plt>
  401e6c:	bf 01 00 00 00       	mov    $0x1,%edi
  401e71:	e8 4a ef ff ff       	callq  400dc0 <exit@plt>
  401e76:	48 8d 90 f8 ff 0f 00 	lea    0xffff8(%rax),%rdx
  401e7d:	48 89 15 8c 32 20 00 	mov    %rdx,0x20328c(%rip)        # 605110 <stack_top>
  401e84:	48 89 e0             	mov    %rsp,%rax
  401e87:	48 89 d4             	mov    %rdx,%rsp
  401e8a:	48 89 c2             	mov    %rax,%rdx
  401e8d:	48 89 15 2c 26 20 00 	mov    %rdx,0x20262c(%rip)        # 6044c0 <global_save_stack>
  401e94:	48 8b 3d 2d 26 20 00 	mov    0x20262d(%rip),%rdi        # 6044c8 <global_offset>
  401e9b:	e8 eb fe ff ff       	callq  401d8b <launch>
  401ea0:	48 8b 05 19 26 20 00 	mov    0x202619(%rip),%rax        # 6044c0 <global_save_stack>
  401ea7:	48 89 c4             	mov    %rax,%rsp
  401eaa:	be 00 00 10 00       	mov    $0x100000,%esi
  401eaf:	48 89 df             	mov    %rbx,%rdi
  401eb2:	e8 99 ee ff ff       	callq  400d50 <munmap@plt>
  401eb7:	5b                   	pop    %rbx
  401eb8:	c3                   	retq   
  401eb9:	0f 1f 80 00 00 00 00 	nopl   0x0(%rax)

0000000000401ec0 <rio_readinitb>:
  401ec0:	89 37                	mov    %esi,(%rdi)
  401ec2:	c7 47 04 00 00 00 00 	movl   $0x0,0x4(%rdi)
  401ec9:	48 8d 47 10          	lea    0x10(%rdi),%rax
  401ecd:	48 89 47 08          	mov    %rax,0x8(%rdi)
  401ed1:	c3                   	retq   

0000000000401ed2 <sigalrm_handler>:
  401ed2:	48 83 ec 08          	sub    $0x8,%rsp
  401ed6:	ba 00 00 00 00       	mov    $0x0,%edx
  401edb:	be b0 33 40 00       	mov    $0x4033b0,%esi
  401ee0:	48 8b 3d c9 25 20 00 	mov    0x2025c9(%rip),%rdi        # 6044b0 <stderr@@GLIBC_2.2.5>
  401ee7:	b8 00 00 00 00       	mov    $0x0,%eax
  401eec:	e8 ef ed ff ff       	callq  400ce0 <fprintf@plt>
  401ef1:	bf 01 00 00 00       	mov    $0x1,%edi
  401ef6:	e8 c5 ee ff ff       	callq  400dc0 <exit@plt>

0000000000401efb <urlencode>:
  401efb:	41 54                	push   %r12
  401efd:	55                   	push   %rbp
  401efe:	53                   	push   %rbx
  401eff:	48 83 ec 10          	sub    $0x10,%rsp
  401f03:	48 89 fb             	mov    %rdi,%rbx
  401f06:	48 89 f5             	mov    %rsi,%rbp
  401f09:	b8 00 00 00 00       	mov    $0x0,%eax
  401f0e:	48 c7 c1 ff ff ff ff 	mov    $0xffffffffffffffff,%rcx
  401f15:	f2 ae                	repnz scas %es:(%rdi),%al
  401f17:	48 f7 d1             	not    %rcx
  401f1a:	8d 41 ff             	lea    -0x1(%rcx),%eax
  401f1d:	e9 93 00 00 00       	jmpq   401fb5 <urlencode+0xba>
  401f22:	0f b6 13             	movzbl (%rbx),%edx
  401f25:	80 fa 2a             	cmp    $0x2a,%dl
  401f28:	0f 94 c1             	sete   %cl
  401f2b:	80 fa 2d             	cmp    $0x2d,%dl
  401f2e:	0f 94 c0             	sete   %al
  401f31:	08 c1                	or     %al,%cl
  401f33:	75 1f                	jne    401f54 <urlencode+0x59>
  401f35:	80 fa 2e             	cmp    $0x2e,%dl
  401f38:	74 1a                	je     401f54 <urlencode+0x59>
  401f3a:	80 fa 5f             	cmp    $0x5f,%dl
  401f3d:	74 15                	je     401f54 <urlencode+0x59>
  401f3f:	8d 42 d0             	lea    -0x30(%rdx),%eax
  401f42:	3c 09                	cmp    $0x9,%al
  401f44:	76 0e                	jbe    401f54 <urlencode+0x59>
  401f46:	8d 42 bf             	lea    -0x41(%rdx),%eax
  401f49:	3c 19                	cmp    $0x19,%al
  401f4b:	76 07                	jbe    401f54 <urlencode+0x59>
  401f4d:	8d 42 9f             	lea    -0x61(%rdx),%eax
  401f50:	3c 19                	cmp    $0x19,%al
  401f52:	77 09                	ja     401f5d <urlencode+0x62>
  401f54:	88 55 00             	mov    %dl,0x0(%rbp)
  401f57:	48 8d 6d 01          	lea    0x1(%rbp),%rbp
  401f5b:	eb 51                	jmp    401fae <urlencode+0xb3>
  401f5d:	80 fa 20             	cmp    $0x20,%dl
  401f60:	75 0a                	jne    401f6c <urlencode+0x71>
  401f62:	c6 45 00 2b          	movb   $0x2b,0x0(%rbp)
  401f66:	48 8d 6d 01          	lea    0x1(%rbp),%rbp
  401f6a:	eb 42                	jmp    401fae <urlencode+0xb3>
  401f6c:	8d 42 e0             	lea    -0x20(%rdx),%eax
  401f6f:	3c 5f                	cmp    $0x5f,%al
  401f71:	0f 96 c1             	setbe  %cl
  401f74:	80 fa 09             	cmp    $0x9,%dl
  401f77:	0f 94 c0             	sete   %al
  401f7a:	08 c1                	or     %al,%cl
  401f7c:	74 45                	je     401fc3 <urlencode+0xc8>
  401f7e:	0f b6 d2             	movzbl %dl,%edx
  401f81:	be 48 34 40 00       	mov    $0x403448,%esi
  401f86:	48 89 e7             	mov    %rsp,%rdi
  401f89:	b8 00 00 00 00       	mov    $0x0,%eax
  401f8e:	e8 1d ee ff ff       	callq  400db0 <sprintf@plt>
  401f93:	0f b6 04 24          	movzbl (%rsp),%eax
  401f97:	88 45 00             	mov    %al,0x0(%rbp)
  401f9a:	0f b6 44 24 01       	movzbl 0x1(%rsp),%eax
  401f9f:	88 45 01             	mov    %al,0x1(%rbp)
  401fa2:	0f b6 44 24 02       	movzbl 0x2(%rsp),%eax
  401fa7:	88 45 02             	mov    %al,0x2(%rbp)
  401faa:	48 8d 6d 03          	lea    0x3(%rbp),%rbp
  401fae:	48 83 c3 01          	add    $0x1,%rbx
  401fb2:	44 89 e0             	mov    %r12d,%eax
  401fb5:	44 8d 60 ff          	lea    -0x1(%rax),%r12d
  401fb9:	85 c0                	test   %eax,%eax
  401fbb:	0f 85 61 ff ff ff    	jne    401f22 <urlencode+0x27>
  401fc1:	eb 05                	jmp    401fc8 <urlencode+0xcd>
  401fc3:	b8 ff ff ff ff       	mov    $0xffffffff,%eax
  401fc8:	48 83 c4 10          	add    $0x10,%rsp
  401fcc:	5b                   	pop    %rbx
  401fcd:	5d                   	pop    %rbp
  401fce:	41 5c                	pop    %r12
  401fd0:	c3                   	retq   

0000000000401fd1 <rio_writen>:
  401fd1:	41 55                	push   %r13
  401fd3:	41 54                	push   %r12
  401fd5:	55                   	push   %rbp
  401fd6:	53                   	push   %rbx
  401fd7:	48 83 ec 08          	sub    $0x8,%rsp
  401fdb:	41 89 fc             	mov    %edi,%r12d
  401fde:	48 89 f5             	mov    %rsi,%rbp
  401fe1:	49 89 d5             	mov    %rdx,%r13
  401fe4:	48 89 d3             	mov    %rdx,%rbx
  401fe7:	eb 28                	jmp    402011 <rio_writen+0x40>
  401fe9:	48 89 da             	mov    %rbx,%rdx
  401fec:	48 89 ee             	mov    %rbp,%rsi
  401fef:	44 89 e7             	mov    %r12d,%edi
  401ff2:	e8 49 ec ff ff       	callq  400c40 <write@plt>
  401ff7:	48 85 c0             	test   %rax,%rax
  401ffa:	7f 0f                	jg     40200b <rio_writen+0x3a>
  401ffc:	e8 ef eb ff ff       	callq  400bf0 <__errno_location@plt>
  402001:	83 38 04             	cmpl   $0x4,(%rax)
  402004:	75 15                	jne    40201b <rio_writen+0x4a>
  402006:	b8 00 00 00 00       	mov    $0x0,%eax
  40200b:	48 29 c3             	sub    %rax,%rbx
  40200e:	48 01 c5             	add    %rax,%rbp
  402011:	48 85 db             	test   %rbx,%rbx
  402014:	75 d3                	jne    401fe9 <rio_writen+0x18>
  402016:	4c 89 e8             	mov    %r13,%rax
  402019:	eb 07                	jmp    402022 <rio_writen+0x51>
  40201b:	48 c7 c0 ff ff ff ff 	mov    $0xffffffffffffffff,%rax
  402022:	48 83 c4 08          	add    $0x8,%rsp
  402026:	5b                   	pop    %rbx
  402027:	5d                   	pop    %rbp
  402028:	41 5c                	pop    %r12
  40202a:	41 5d                	pop    %r13
  40202c:	c3                   	retq   

000000000040202d <rio_read>:
  40202d:	41 56                	push   %r14
  40202f:	41 55                	push   %r13
  402031:	41 54                	push   %r12
  402033:	55                   	push   %rbp
  402034:	53                   	push   %rbx
  402035:	48 89 fb             	mov    %rdi,%rbx
  402038:	49 89 f6             	mov    %rsi,%r14
  40203b:	49 89 d5             	mov    %rdx,%r13
  40203e:	4c 8d 67 10          	lea    0x10(%rdi),%r12
  402042:	eb 2a                	jmp    40206e <rio_read+0x41>
  402044:	ba 00 20 00 00       	mov    $0x2000,%edx
  402049:	4c 89 e6             	mov    %r12,%rsi
  40204c:	8b 3b                	mov    (%rbx),%edi
  40204e:	e8 4d ec ff ff       	callq  400ca0 <read@plt>
  402053:	89 43 04             	mov    %eax,0x4(%rbx)
  402056:	85 c0                	test   %eax,%eax
  402058:	79 0c                	jns    402066 <rio_read+0x39>
  40205a:	e8 91 eb ff ff       	callq  400bf0 <__errno_location@plt>
  40205f:	83 38 04             	cmpl   $0x4,(%rax)
  402062:	74 0a                	je     40206e <rio_read+0x41>
  402064:	eb 37                	jmp    40209d <rio_read+0x70>
  402066:	85 c0                	test   %eax,%eax
  402068:	74 3c                	je     4020a6 <rio_read+0x79>
  40206a:	4c 89 63 08          	mov    %r12,0x8(%rbx)
  40206e:	8b 6b 04             	mov    0x4(%rbx),%ebp
  402071:	85 ed                	test   %ebp,%ebp
  402073:	7e cf                	jle    402044 <rio_read+0x17>
  402075:	89 e8                	mov    %ebp,%eax
  402077:	4c 39 e8             	cmp    %r13,%rax
  40207a:	72 03                	jb     40207f <rio_read+0x52>
  40207c:	44 89 ed             	mov    %r13d,%ebp
  40207f:	4c 63 e5             	movslq %ebp,%r12
  402082:	48 8b 73 08          	mov    0x8(%rbx),%rsi
  402086:	4c 89 e2             	mov    %r12,%rdx
  402089:	4c 89 f7             	mov    %r14,%rdi
  40208c:	e8 6f ec ff ff       	callq  400d00 <memcpy@plt>
  402091:	4c 01 63 08          	add    %r12,0x8(%rbx)
  402095:	29 6b 04             	sub    %ebp,0x4(%rbx)
  402098:	4c 89 e0             	mov    %r12,%rax
  40209b:	eb 0e                	jmp    4020ab <rio_read+0x7e>
  40209d:	48 c7 c0 ff ff ff ff 	mov    $0xffffffffffffffff,%rax
  4020a4:	eb 05                	jmp    4020ab <rio_read+0x7e>
  4020a6:	b8 00 00 00 00       	mov    $0x0,%eax
  4020ab:	5b                   	pop    %rbx
  4020ac:	5d                   	pop    %rbp
  4020ad:	41 5c                	pop    %r12
  4020af:	41 5d                	pop    %r13
  4020b1:	41 5e                	pop    %r14
  4020b3:	c3                   	retq   

00000000004020b4 <rio_readlineb>:
  4020b4:	41 55                	push   %r13
  4020b6:	41 54                	push   %r12
  4020b8:	55                   	push   %rbp
  4020b9:	53                   	push   %rbx
  4020ba:	48 83 ec 18          	sub    $0x18,%rsp
  4020be:	49 89 fd             	mov    %rdi,%r13
  4020c1:	48 89 f5             	mov    %rsi,%rbp
  4020c4:	49 89 d4             	mov    %rdx,%r12
  4020c7:	bb 01 00 00 00       	mov    $0x1,%ebx
  4020cc:	eb 3d                	jmp    40210b <rio_readlineb+0x57>
  4020ce:	ba 01 00 00 00       	mov    $0x1,%edx
  4020d3:	48 8d 74 24 0f       	lea    0xf(%rsp),%rsi
  4020d8:	4c 89 ef             	mov    %r13,%rdi
  4020db:	e8 4d ff ff ff       	callq  40202d <rio_read>
  4020e0:	83 f8 01             	cmp    $0x1,%eax
  4020e3:	75 12                	jne    4020f7 <rio_readlineb+0x43>
  4020e5:	48 8d 55 01          	lea    0x1(%rbp),%rdx
  4020e9:	0f b6 44 24 0f       	movzbl 0xf(%rsp),%eax
  4020ee:	88 45 00             	mov    %al,0x0(%rbp)
  4020f1:	3c 0a                	cmp    $0xa,%al
  4020f3:	75 0f                	jne    402104 <rio_readlineb+0x50>
  4020f5:	eb 1b                	jmp    402112 <rio_readlineb+0x5e>
  4020f7:	85 c0                	test   %eax,%eax
  4020f9:	75 23                	jne    40211e <rio_readlineb+0x6a>
  4020fb:	48 83 fb 01          	cmp    $0x1,%rbx
  4020ff:	90                   	nop
  402100:	75 13                	jne    402115 <rio_readlineb+0x61>
  402102:	eb 23                	jmp    402127 <rio_readlineb+0x73>
  402104:	48 83 c3 01          	add    $0x1,%rbx
  402108:	48 89 d5             	mov    %rdx,%rbp
  40210b:	4c 39 e3             	cmp    %r12,%rbx
  40210e:	72 be                	jb     4020ce <rio_readlineb+0x1a>
  402110:	eb 03                	jmp    402115 <rio_readlineb+0x61>
  402112:	48 89 d5             	mov    %rdx,%rbp
  402115:	c6 45 00 00          	movb   $0x0,0x0(%rbp)
  402119:	48 89 d8             	mov    %rbx,%rax
  40211c:	eb 0e                	jmp    40212c <rio_readlineb+0x78>
  40211e:	48 c7 c0 ff ff ff ff 	mov    $0xffffffffffffffff,%rax
  402125:	eb 05                	jmp    40212c <rio_readlineb+0x78>
  402127:	b8 00 00 00 00       	mov    $0x0,%eax
  40212c:	48 83 c4 18          	add    $0x18,%rsp
  402130:	5b                   	pop    %rbx
  402131:	5d                   	pop    %rbp
  402132:	41 5c                	pop    %r12
  402134:	41 5d                	pop    %r13
  402136:	c3                   	retq   

0000000000402137 <submitr>:
  402137:	41 57                	push   %r15
  402139:	41 56                	push   %r14
  40213b:	41 55                	push   %r13
  40213d:	41 54                	push   %r12
  40213f:	55                   	push   %rbp
  402140:	53                   	push   %rbx
  402141:	48 81 ec 48 a0 00 00 	sub    $0xa048,%rsp
  402148:	49 89 fc             	mov    %rdi,%r12
  40214b:	89 74 24 04          	mov    %esi,0x4(%rsp)
  40214f:	49 89 d7             	mov    %rdx,%r15
  402152:	49 89 ce             	mov    %rcx,%r14
  402155:	4c 89 44 24 08       	mov    %r8,0x8(%rsp)
  40215a:	4d 89 cd             	mov    %r9,%r13
  40215d:	48 8b 9c 24 80 a0 00 	mov    0xa080(%rsp),%rbx
  402164:	00 
  402165:	c7 84 24 1c 20 00 00 	movl   $0x0,0x201c(%rsp)
  40216c:	00 00 00 00 
  402170:	ba 00 00 00 00       	mov    $0x0,%edx
  402175:	be 01 00 00 00       	mov    $0x1,%esi
  40217a:	bf 02 00 00 00       	mov    $0x2,%edi
  40217f:	e8 5c ec ff ff       	callq  400de0 <socket@plt>
  402184:	89 c5                	mov    %eax,%ebp
  402186:	85 c0                	test   %eax,%eax
  402188:	79 4e                	jns    4021d8 <submitr+0xa1>
  40218a:	48 b8 45 72 72 6f 72 	movabs $0x43203a726f727245,%rax
  402191:	3a 20 43 
  402194:	48 89 03             	mov    %rax,(%rbx)
  402197:	48 b8 6c 69 65 6e 74 	movabs $0x6e7520746e65696c,%rax
  40219e:	20 75 6e 
  4021a1:	48 89 43 08          	mov    %rax,0x8(%rbx)
  4021a5:	48 b8 61 62 6c 65 20 	movabs $0x206f7420656c6261,%rax
  4021ac:	74 6f 20 
  4021af:	48 89 43 10          	mov    %rax,0x10(%rbx)
  4021b3:	48 b8 63 72 65 61 74 	movabs $0x7320657461657263,%rax
  4021ba:	65 20 73 
  4021bd:	48 89 43 18          	mov    %rax,0x18(%rbx)
  4021c1:	c7 43 20 6f 63 6b 65 	movl   $0x656b636f,0x20(%rbx)
  4021c8:	66 c7 43 24 74 00    	movw   $0x74,0x24(%rbx)
  4021ce:	b8 ff ff ff ff       	mov    $0xffffffff,%eax
  4021d3:	e9 68 06 00 00       	jmpq   402840 <submitr+0x709>
  4021d8:	4c 89 e7             	mov    %r12,%rdi
  4021db:	e8 f0 ea ff ff       	callq  400cd0 <gethostbyname@plt>
  4021e0:	48 85 c0             	test   %rax,%rax
  4021e3:	75 67                	jne    40224c <submitr+0x115>
  4021e5:	48 b8 45 72 72 6f 72 	movabs $0x44203a726f727245,%rax
  4021ec:	3a 20 44 
  4021ef:	48 89 03             	mov    %rax,(%rbx)
  4021f2:	48 b8 4e 53 20 69 73 	movabs $0x6e7520736920534e,%rax
  4021f9:	20 75 6e 
  4021fc:	48 89 43 08          	mov    %rax,0x8(%rbx)
  402200:	48 b8 61 62 6c 65 20 	movabs $0x206f7420656c6261,%rax
  402207:	74 6f 20 
  40220a:	48 89 43 10          	mov    %rax,0x10(%rbx)
  40220e:	48 b8 72 65 73 6f 6c 	movabs $0x2065766c6f736572,%rax
  402215:	76 65 20 
  402218:	48 89 43 18          	mov    %rax,0x18(%rbx)
  40221c:	48 b8 73 65 72 76 65 	movabs $0x6120726576726573,%rax
  402223:	72 20 61 
  402226:	48 89 43 20          	mov    %rax,0x20(%rbx)
  40222a:	c7 43 28 64 64 72 65 	movl   $0x65726464,0x28(%rbx)
  402231:	66 c7 43 2c 73 73    	movw   $0x7373,0x2c(%rbx)
  402237:	c6 43 2e 00          	movb   $0x0,0x2e(%rbx)
  40223b:	89 ef                	mov    %ebp,%edi
  40223d:	e8 4e ea ff ff       	callq  400c90 <close@plt>
  402242:	b8 ff ff ff ff       	mov    $0xffffffff,%eax
  402247:	e9 f4 05 00 00       	jmpq   402840 <submitr+0x709>
  40224c:	48 c7 84 24 30 a0 00 	movq   $0x0,0xa030(%rsp)
  402253:	00 00 00 00 00 
  402258:	48 c7 84 24 38 a0 00 	movq   $0x0,0xa038(%rsp)
  40225f:	00 00 00 00 00 
  402264:	66 c7 84 24 30 a0 00 	movw   $0x2,0xa030(%rsp)
  40226b:	00 02 00 
  40226e:	48 8b 48 18          	mov    0x18(%rax),%rcx
  402272:	48 63 50 14          	movslq 0x14(%rax),%rdx
  402276:	48 8d b4 24 34 a0 00 	lea    0xa034(%rsp),%rsi
  40227d:	00 
  40227e:	48 8b 39             	mov    (%rcx),%rdi
  402281:	e8 da ea ff ff       	callq  400d60 <bcopy@plt>
  402286:	0f b7 44 24 04       	movzwl 0x4(%rsp),%eax
  40228b:	66 c1 c8 08          	ror    $0x8,%ax
  40228f:	66 89 84 24 32 a0 00 	mov    %ax,0xa032(%rsp)
  402296:	00 
  402297:	ba 10 00 00 00       	mov    $0x10,%edx
  40229c:	48 8d b4 24 30 a0 00 	lea    0xa030(%rsp),%rsi
  4022a3:	00 
  4022a4:	89 ef                	mov    %ebp,%edi
  4022a6:	e8 25 eb ff ff       	callq  400dd0 <connect@plt>
  4022ab:	85 c0                	test   %eax,%eax
  4022ad:	79 59                	jns    402308 <submitr+0x1d1>
  4022af:	48 b8 45 72 72 6f 72 	movabs $0x55203a726f727245,%rax
  4022b6:	3a 20 55 
  4022b9:	48 89 03             	mov    %rax,(%rbx)
  4022bc:	48 b8 6e 61 62 6c 65 	movabs $0x6f7420656c62616e,%rax
  4022c3:	20 74 6f 
  4022c6:	48 89 43 08          	mov    %rax,0x8(%rbx)
  4022ca:	48 b8 20 63 6f 6e 6e 	movabs $0x7463656e6e6f6320,%rax
  4022d1:	65 63 74 
  4022d4:	48 89 43 10          	mov    %rax,0x10(%rbx)
  4022d8:	48 b8 20 74 6f 20 74 	movabs $0x20656874206f7420,%rax
  4022df:	68 65 20 
  4022e2:	48 89 43 18          	mov    %rax,0x18(%rbx)
  4022e6:	c7 43 20 73 65 72 76 	movl   $0x76726573,0x20(%rbx)
  4022ed:	66 c7 43 24 65 72    	movw   $0x7265,0x24(%rbx)
  4022f3:	c6 43 26 00          	movb   $0x0,0x26(%rbx)
  4022f7:	89 ef                	mov    %ebp,%edi
  4022f9:	e8 92 e9 ff ff       	callq  400c90 <close@plt>
  4022fe:	b8 ff ff ff ff       	mov    $0xffffffff,%eax
  402303:	e9 38 05 00 00       	jmpq   402840 <submitr+0x709>
  402308:	48 c7 c2 ff ff ff ff 	mov    $0xffffffffffffffff,%rdx
  40230f:	4c 89 ef             	mov    %r13,%rdi
  402312:	b8 00 00 00 00       	mov    $0x0,%eax
  402317:	48 89 d1             	mov    %rdx,%rcx
  40231a:	f2 ae                	repnz scas %es:(%rdi),%al
  40231c:	48 f7 d1             	not    %rcx
  40231f:	48 89 ce             	mov    %rcx,%rsi
  402322:	4c 89 ff             	mov    %r15,%rdi
  402325:	48 89 d1             	mov    %rdx,%rcx
  402328:	f2 ae                	repnz scas %es:(%rdi),%al
  40232a:	48 f7 d1             	not    %rcx
  40232d:	49 89 c8             	mov    %rcx,%r8
  402330:	4c 89 f7             	mov    %r14,%rdi
  402333:	48 89 d1             	mov    %rdx,%rcx
  402336:	f2 ae                	repnz scas %es:(%rdi),%al
  402338:	49 29 c8             	sub    %rcx,%r8
  40233b:	48 8b 7c 24 08       	mov    0x8(%rsp),%rdi
  402340:	48 89 d1             	mov    %rdx,%rcx
  402343:	f2 ae                	repnz scas %es:(%rdi),%al
  402345:	49 29 c8             	sub    %rcx,%r8
  402348:	48 8d 44 76 fd       	lea    -0x3(%rsi,%rsi,2),%rax
  40234d:	49 8d 44 00 7b       	lea    0x7b(%r8,%rax,1),%rax
  402352:	48 3d 00 20 00 00    	cmp    $0x2000,%rax
  402358:	76 72                	jbe    4023cc <submitr+0x295>
  40235a:	48 b8 45 72 72 6f 72 	movabs $0x52203a726f727245,%rax
  402361:	3a 20 52 
  402364:	48 89 03             	mov    %rax,(%rbx)
  402367:	48 b8 65 73 75 6c 74 	movabs $0x747320746c757365,%rax
  40236e:	20 73 74 
  402371:	48 89 43 08          	mov    %rax,0x8(%rbx)
  402375:	48 b8 72 69 6e 67 20 	movabs $0x6f6f7420676e6972,%rax
  40237c:	74 6f 6f 
  40237f:	48 89 43 10          	mov    %rax,0x10(%rbx)
  402383:	48 b8 20 6c 61 72 67 	movabs $0x202e656772616c20,%rax
  40238a:	65 2e 20 
  40238d:	48 89 43 18          	mov    %rax,0x18(%rbx)
  402391:	48 b8 49 6e 63 72 65 	movabs $0x6573616572636e49,%rax
  402398:	61 73 65 
  40239b:	48 89 43 20          	mov    %rax,0x20(%rbx)
  40239f:	48 b8 20 53 55 42 4d 	movabs $0x5254494d42555320,%rax
  4023a6:	49 54 52 
  4023a9:	48 89 43 28          	mov    %rax,0x28(%rbx)
  4023ad:	48 b8 5f 4d 41 58 42 	movabs $0x46554258414d5f,%rax
  4023b4:	55 46 00 
  4023b7:	48 89 43 30          	mov    %rax,0x30(%rbx)
  4023bb:	89 ef                	mov    %ebp,%edi
  4023bd:	e8 ce e8 ff ff       	callq  400c90 <close@plt>
  4023c2:	b8 ff ff ff ff       	mov    $0xffffffff,%eax
  4023c7:	e9 74 04 00 00       	jmpq   402840 <submitr+0x709>
  4023cc:	48 8d b4 24 20 40 00 	lea    0x4020(%rsp),%rsi
  4023d3:	00 
  4023d4:	b9 00 04 00 00       	mov    $0x400,%ecx
  4023d9:	b8 00 00 00 00       	mov    $0x0,%eax
  4023de:	48 89 f7             	mov    %rsi,%rdi
  4023e1:	f3 48 ab             	rep stos %rax,%es:(%rdi)
  4023e4:	4c 89 ef             	mov    %r13,%rdi
  4023e7:	e8 0f fb ff ff       	callq  401efb <urlencode>
  4023ec:	85 c0                	test   %eax,%eax
  4023ee:	0f 89 8a 00 00 00    	jns    40247e <submitr+0x347>
  4023f4:	48 b8 45 72 72 6f 72 	movabs $0x52203a726f727245,%rax
  4023fb:	3a 20 52 
  4023fe:	48 89 03             	mov    %rax,(%rbx)
  402401:	48 b8 65 73 75 6c 74 	movabs $0x747320746c757365,%rax
  402408:	20 73 74 
  40240b:	48 89 43 08          	mov    %rax,0x8(%rbx)
  40240f:	48 b8 72 69 6e 67 20 	movabs $0x6e6f6320676e6972,%rax
  402416:	63 6f 6e 
  402419:	48 89 43 10          	mov    %rax,0x10(%rbx)
  40241d:	48 b8 74 61 69 6e 73 	movabs $0x6e6120736e696174,%rax
  402424:	20 61 6e 
  402427:	48 89 43 18          	mov    %rax,0x18(%rbx)
  40242b:	48 b8 20 69 6c 6c 65 	movabs $0x6c6167656c6c6920,%rax
  402432:	67 61 6c 
  402435:	48 89 43 20          	mov    %rax,0x20(%rbx)
  402439:	48 b8 20 6f 72 20 75 	movabs $0x72706e7520726f20,%rax
  402440:	6e 70 72 
  402443:	48 89 43 28          	mov    %rax,0x28(%rbx)
  402447:	48 b8 69 6e 74 61 62 	movabs $0x20656c6261746e69,%rax
  40244e:	6c 65 20 
  402451:	48 89 43 30          	mov    %rax,0x30(%rbx)
  402455:	48 b8 63 68 61 72 61 	movabs $0x6574636172616863,%rax
  40245c:	63 74 65 
  40245f:	48 89 43 38          	mov    %rax,0x38(%rbx)
  402463:	66 c7 43 40 72 2e    	movw   $0x2e72,0x40(%rbx)
  402469:	c6 43 42 00          	movb   $0x0,0x42(%rbx)
  40246d:	89 ef                	mov    %ebp,%edi
  40246f:	e8 1c e8 ff ff       	callq  400c90 <close@plt>
  402474:	b8 ff ff ff ff       	mov    $0xffffffff,%eax
  402479:	e9 c2 03 00 00       	jmpq   402840 <submitr+0x709>
  40247e:	4d 89 e1             	mov    %r12,%r9
  402481:	4c 8d 84 24 20 40 00 	lea    0x4020(%rsp),%r8
  402488:	00 
  402489:	4c 89 f9             	mov    %r15,%rcx
  40248c:	4c 89 f2             	mov    %r14,%rdx
  40248f:	be d8 33 40 00       	mov    $0x4033d8,%esi
  402494:	48 8d bc 24 20 60 00 	lea    0x6020(%rsp),%rdi
  40249b:	00 
  40249c:	b8 00 00 00 00       	mov    $0x0,%eax
  4024a1:	e8 0a e9 ff ff       	callq  400db0 <sprintf@plt>
  4024a6:	48 8d bc 24 20 60 00 	lea    0x6020(%rsp),%rdi
  4024ad:	00 
  4024ae:	b8 00 00 00 00       	mov    $0x0,%eax
  4024b3:	48 c7 c1 ff ff ff ff 	mov    $0xffffffffffffffff,%rcx
  4024ba:	f2 ae                	repnz scas %es:(%rdi),%al
  4024bc:	48 f7 d1             	not    %rcx
  4024bf:	48 8d 51 ff          	lea    -0x1(%rcx),%rdx
  4024c3:	48 8d b4 24 20 60 00 	lea    0x6020(%rsp),%rsi
  4024ca:	00 
  4024cb:	89 ef                	mov    %ebp,%edi
  4024cd:	e8 ff fa ff ff       	callq  401fd1 <rio_writen>
  4024d2:	48 85 c0             	test   %rax,%rax
  4024d5:	79 6e                	jns    402545 <submitr+0x40e>
  4024d7:	48 b8 45 72 72 6f 72 	movabs $0x43203a726f727245,%rax
  4024de:	3a 20 43 
  4024e1:	48 89 03             	mov    %rax,(%rbx)
  4024e4:	48 b8 6c 69 65 6e 74 	movabs $0x6e7520746e65696c,%rax
  4024eb:	20 75 6e 
  4024ee:	48 89 43 08          	mov    %rax,0x8(%rbx)
  4024f2:	48 b8 61 62 6c 65 20 	movabs $0x206f7420656c6261,%rax
  4024f9:	74 6f 20 
  4024fc:	48 89 43 10          	mov    %rax,0x10(%rbx)
  402500:	48 b8 77 72 69 74 65 	movabs $0x6f74206574697277,%rax
  402507:	20 74 6f 
  40250a:	48 89 43 18          	mov    %rax,0x18(%rbx)
  40250e:	48 b8 20 74 68 65 20 	movabs $0x7365722065687420,%rax
  402515:	72 65 73 
  402518:	48 89 43 20          	mov    %rax,0x20(%rbx)
  40251c:	48 b8 75 6c 74 20 73 	movabs $0x7672657320746c75,%rax
  402523:	65 72 76 
  402526:	48 89 43 28          	mov    %rax,0x28(%rbx)
  40252a:	66 c7 43 30 65 72    	movw   $0x7265,0x30(%rbx)
  402530:	c6 43 32 00          	movb   $0x0,0x32(%rbx)
  402534:	89 ef                	mov    %ebp,%edi
  402536:	e8 55 e7 ff ff       	callq  400c90 <close@plt>
  40253b:	b8 ff ff ff ff       	mov    $0xffffffff,%eax
  402540:	e9 fb 02 00 00       	jmpq   402840 <submitr+0x709>
  402545:	89 ee                	mov    %ebp,%esi
  402547:	48 8d bc 24 20 80 00 	lea    0x8020(%rsp),%rdi
  40254e:	00 
  40254f:	e8 6c f9 ff ff       	callq  401ec0 <rio_readinitb>
  402554:	ba 00 20 00 00       	mov    $0x2000,%edx
  402559:	48 8d b4 24 20 60 00 	lea    0x6020(%rsp),%rsi
  402560:	00 
  402561:	48 8d bc 24 20 80 00 	lea    0x8020(%rsp),%rdi
  402568:	00 
  402569:	e8 46 fb ff ff       	callq  4020b4 <rio_readlineb>
  40256e:	48 85 c0             	test   %rax,%rax
  402571:	7f 7d                	jg     4025f0 <submitr+0x4b9>
  402573:	48 b8 45 72 72 6f 72 	movabs $0x43203a726f727245,%rax
  40257a:	3a 20 43 
  40257d:	48 89 03             	mov    %rax,(%rbx)
  402580:	48 b8 6c 69 65 6e 74 	movabs $0x6e7520746e65696c,%rax
  402587:	20 75 6e 
  40258a:	48 89 43 08          	mov    %rax,0x8(%rbx)
  40258e:	48 b8 61 62 6c 65 20 	movabs $0x206f7420656c6261,%rax
  402595:	74 6f 20 
  402598:	48 89 43 10          	mov    %rax,0x10(%rbx)
  40259c:	48 b8 72 65 61 64 20 	movabs $0x7269662064616572,%rax
  4025a3:	66 69 72 
  4025a6:	48 89 43 18          	mov    %rax,0x18(%rbx)
  4025aa:	48 b8 73 74 20 68 65 	movabs $0x6564616568207473,%rax
  4025b1:	61 64 65 
  4025b4:	48 89 43 20          	mov    %rax,0x20(%rbx)
  4025b8:	48 b8 72 20 66 72 6f 	movabs $0x72206d6f72662072,%rax
  4025bf:	6d 20 72 
  4025c2:	48 89 43 28          	mov    %rax,0x28(%rbx)
  4025c6:	48 b8 65 73 75 6c 74 	movabs $0x657320746c757365,%rax
  4025cd:	20 73 65 
  4025d0:	48 89 43 30          	mov    %rax,0x30(%rbx)
  4025d4:	c7 43 38 72 76 65 72 	movl   $0x72657672,0x38(%rbx)
  4025db:	c6 43 3c 00          	movb   $0x0,0x3c(%rbx)
  4025df:	89 ef                	mov    %ebp,%edi
  4025e1:	e8 aa e6 ff ff       	callq  400c90 <close@plt>
  4025e6:	b8 ff ff ff ff       	mov    $0xffffffff,%eax
  4025eb:	e9 50 02 00 00       	jmpq   402840 <submitr+0x709>
  4025f0:	4c 8d 44 24 10       	lea    0x10(%rsp),%r8
  4025f5:	48 8d 8c 24 1c 20 00 	lea    0x201c(%rsp),%rcx
  4025fc:	00 
  4025fd:	48 8d 94 24 20 20 00 	lea    0x2020(%rsp),%rdx
  402604:	00 
  402605:	be 4f 34 40 00       	mov    $0x40344f,%esi
  40260a:	48 8d bc 24 20 60 00 	lea    0x6020(%rsp),%rdi
  402611:	00 
  402612:	b8 00 00 00 00       	mov    $0x0,%eax
  402617:	e8 24 e7 ff ff       	callq  400d40 <__isoc99_sscanf@plt>
  40261c:	e9 98 00 00 00       	jmpq   4026b9 <submitr+0x582>
  402621:	ba 00 20 00 00       	mov    $0x2000,%edx
  402626:	48 8d b4 24 20 60 00 	lea    0x6020(%rsp),%rsi
  40262d:	00 
  40262e:	48 8d bc 24 20 80 00 	lea    0x8020(%rsp),%rdi
  402635:	00 
  402636:	e8 79 fa ff ff       	callq  4020b4 <rio_readlineb>
  40263b:	48 85 c0             	test   %rax,%rax
  40263e:	7f 79                	jg     4026b9 <submitr+0x582>
  402640:	48 b8 45 72 72 6f 72 	movabs $0x43203a726f727245,%rax
  402647:	3a 20 43 
  40264a:	48 89 03             	mov    %rax,(%rbx)
  40264d:	48 b8 6c 69 65 6e 74 	movabs $0x6e7520746e65696c,%rax
  402654:	20 75 6e 
  402657:	48 89 43 08          	mov    %rax,0x8(%rbx)
  40265b:	48 b8 61 62 6c 65 20 	movabs $0x206f7420656c6261,%rax
  402662:	74 6f 20 
  402665:	48 89 43 10          	mov    %rax,0x10(%rbx)
  402669:	48 b8 72 65 61 64 20 	movabs $0x6165682064616572,%rax
  402670:	68 65 61 
  402673:	48 89 43 18          	mov    %rax,0x18(%rbx)
  402677:	48 b8 64 65 72 73 20 	movabs $0x6f72662073726564,%rax
  40267e:	66 72 6f 
  402681:	48 89 43 20          	mov    %rax,0x20(%rbx)
  402685:	48 b8 6d 20 74 68 65 	movabs $0x657220656874206d,%rax
  40268c:	20 72 65 
  40268f:	48 89 43 28          	mov    %rax,0x28(%rbx)
  402693:	48 b8 73 75 6c 74 20 	movabs $0x72657320746c7573,%rax
  40269a:	73 65 72 
  40269d:	48 89 43 30          	mov    %rax,0x30(%rbx)
  4026a1:	c7 43 38 76 65 72 00 	movl   $0x726576,0x38(%rbx)
  4026a8:	89 ef                	mov    %ebp,%edi
  4026aa:	e8 e1 e5 ff ff       	callq  400c90 <close@plt>
  4026af:	b8 ff ff ff ff       	mov    $0xffffffff,%eax
  4026b4:	e9 87 01 00 00       	jmpq   402840 <submitr+0x709>
  4026b9:	0f b6 84 24 20 60 00 	movzbl 0x6020(%rsp),%eax
  4026c0:	00 
  4026c1:	83 e8 0d             	sub    $0xd,%eax
  4026c4:	75 15                	jne    4026db <submitr+0x5a4>
  4026c6:	0f b6 84 24 21 60 00 	movzbl 0x6021(%rsp),%eax
  4026cd:	00 
  4026ce:	83 e8 0a             	sub    $0xa,%eax
  4026d1:	75 08                	jne    4026db <submitr+0x5a4>
  4026d3:	0f b6 84 24 22 60 00 	movzbl 0x6022(%rsp),%eax
  4026da:	00 
  4026db:	85 c0                	test   %eax,%eax
  4026dd:	0f 85 3e ff ff ff    	jne    402621 <submitr+0x4ea>
  4026e3:	ba 00 20 00 00       	mov    $0x2000,%edx
  4026e8:	48 8d b4 24 20 60 00 	lea    0x6020(%rsp),%rsi
  4026ef:	00 
  4026f0:	48 8d bc 24 20 80 00 	lea    0x8020(%rsp),%rdi
  4026f7:	00 
  4026f8:	e8 b7 f9 ff ff       	callq  4020b4 <rio_readlineb>
  4026fd:	48 85 c0             	test   %rax,%rax
  402700:	0f 8f 83 00 00 00    	jg     402789 <submitr+0x652>
  402706:	48 b8 45 72 72 6f 72 	movabs $0x43203a726f727245,%rax
  40270d:	3a 20 43 
  402710:	48 89 03             	mov    %rax,(%rbx)
  402713:	48 b8 6c 69 65 6e 74 	movabs $0x6e7520746e65696c,%rax
  40271a:	20 75 6e 
  40271d:	48 89 43 08          	mov    %rax,0x8(%rbx)
  402721:	48 b8 61 62 6c 65 20 	movabs $0x206f7420656c6261,%rax
  402728:	74 6f 20 
  40272b:	48 89 43 10          	mov    %rax,0x10(%rbx)
  40272f:	48 b8 72 65 61 64 20 	movabs $0x6174732064616572,%rax
  402736:	73 74 61 
  402739:	48 89 43 18          	mov    %rax,0x18(%rbx)
  40273d:	48 b8 74 75 73 20 6d 	movabs $0x7373656d20737574,%rax
  402744:	65 73 73 
  402747:	48 89 43 20          	mov    %rax,0x20(%rbx)
  40274b:	48 b8 61 67 65 20 66 	movabs $0x6d6f726620656761,%rax
  402752:	72 6f 6d 
  402755:	48 89 43 28          	mov    %rax,0x28(%rbx)
  402759:	48 b8 20 72 65 73 75 	movabs $0x20746c7573657220,%rax
  402760:	6c 74 20 
  402763:	48 89 43 30          	mov    %rax,0x30(%rbx)
  402767:	c7 43 38 73 65 72 76 	movl   $0x76726573,0x38(%rbx)
  40276e:	66 c7 43 3c 65 72    	movw   $0x7265,0x3c(%rbx)
  402774:	c6 43 3e 00          	movb   $0x0,0x3e(%rbx)
  402778:	89 ef                	mov    %ebp,%edi
  40277a:	e8 11 e5 ff ff       	callq  400c90 <close@plt>
  40277f:	b8 ff ff ff ff       	mov    $0xffffffff,%eax
  402784:	e9 b7 00 00 00       	jmpq   402840 <submitr+0x709>
  402789:	8b 94 24 1c 20 00 00 	mov    0x201c(%rsp),%edx
  402790:	81 fa c8 00 00 00    	cmp    $0xc8,%edx
  402796:	74 28                	je     4027c0 <submitr+0x689>
  402798:	48 8d 4c 24 10       	lea    0x10(%rsp),%rcx
  40279d:	be 18 34 40 00       	mov    $0x403418,%esi
  4027a2:	48 89 df             	mov    %rbx,%rdi
  4027a5:	b8 00 00 00 00       	mov    $0x0,%eax
  4027aa:	e8 01 e6 ff ff       	callq  400db0 <sprintf@plt>
  4027af:	89 ef                	mov    %ebp,%edi
  4027b1:	e8 da e4 ff ff       	callq  400c90 <close@plt>
  4027b6:	b8 ff ff ff ff       	mov    $0xffffffff,%eax
  4027bb:	e9 80 00 00 00       	jmpq   402840 <submitr+0x709>
  4027c0:	48 8d b4 24 20 60 00 	lea    0x6020(%rsp),%rsi
  4027c7:	00 
  4027c8:	48 89 df             	mov    %rbx,%rdi
  4027cb:	e8 50 e4 ff ff       	callq  400c20 <strcpy@plt>
  4027d0:	89 ef                	mov    %ebp,%edi
  4027d2:	e8 b9 e4 ff ff       	callq  400c90 <close@plt>
  4027d7:	0f b6 03             	movzbl (%rbx),%eax
  4027da:	83 e8 4f             	sub    $0x4f,%eax
  4027dd:	75 18                	jne    4027f7 <submitr+0x6c0>
  4027df:	0f b6 53 01          	movzbl 0x1(%rbx),%edx
  4027e3:	83 ea 4b             	sub    $0x4b,%edx
  4027e6:	75 11                	jne    4027f9 <submitr+0x6c2>
  4027e8:	0f b6 53 02          	movzbl 0x2(%rbx),%edx
  4027ec:	83 ea 0a             	sub    $0xa,%edx
  4027ef:	75 08                	jne    4027f9 <submitr+0x6c2>
  4027f1:	0f b6 53 03          	movzbl 0x3(%rbx),%edx
  4027f5:	eb 02                	jmp    4027f9 <submitr+0x6c2>
  4027f7:	89 c2                	mov    %eax,%edx
  4027f9:	85 d2                	test   %edx,%edx
  4027fb:	74 30                	je     40282d <submitr+0x6f6>
  4027fd:	bf 60 34 40 00       	mov    $0x403460,%edi
  402802:	b9 05 00 00 00       	mov    $0x5,%ecx
  402807:	48 89 de             	mov    %rbx,%rsi
  40280a:	f3 a6                	repz cmpsb %es:(%rdi),%ds:(%rsi)
  40280c:	0f 97 c1             	seta   %cl
  40280f:	0f 92 c2             	setb   %dl
  402812:	38 d1                	cmp    %dl,%cl
  402814:	74 1e                	je     402834 <submitr+0x6fd>
  402816:	85 c0                	test   %eax,%eax
  402818:	75 0d                	jne    402827 <submitr+0x6f0>
  40281a:	0f b6 43 01          	movzbl 0x1(%rbx),%eax
  40281e:	83 e8 4b             	sub    $0x4b,%eax
  402821:	75 04                	jne    402827 <submitr+0x6f0>
  402823:	0f b6 43 02          	movzbl 0x2(%rbx),%eax
  402827:	85 c0                	test   %eax,%eax
  402829:	75 10                	jne    40283b <submitr+0x704>
  40282b:	eb 13                	jmp    402840 <submitr+0x709>
  40282d:	b8 00 00 00 00       	mov    $0x0,%eax
  402832:	eb 0c                	jmp    402840 <submitr+0x709>
  402834:	b8 00 00 00 00       	mov    $0x0,%eax
  402839:	eb 05                	jmp    402840 <submitr+0x709>
  40283b:	b8 ff ff ff ff       	mov    $0xffffffff,%eax
  402840:	48 81 c4 48 a0 00 00 	add    $0xa048,%rsp
  402847:	5b                   	pop    %rbx
  402848:	5d                   	pop    %rbp
  402849:	41 5c                	pop    %r12
  40284b:	41 5d                	pop    %r13
  40284d:	41 5e                	pop    %r14
  40284f:	41 5f                	pop    %r15
  402851:	c3                   	retq   

0000000000402852 <init_timeout>:
  402852:	53                   	push   %rbx
  402853:	89 fb                	mov    %edi,%ebx
  402855:	85 ff                	test   %edi,%edi
  402857:	74 1f                	je     402878 <init_timeout+0x26>
  402859:	85 ff                	test   %edi,%edi
  40285b:	79 05                	jns    402862 <init_timeout+0x10>
  40285d:	bb 00 00 00 00       	mov    $0x0,%ebx
  402862:	be d2 1e 40 00       	mov    $0x401ed2,%esi
  402867:	bf 0e 00 00 00       	mov    $0xe,%edi
  40286c:	e8 4f e4 ff ff       	callq  400cc0 <signal@plt>
  402871:	89 df                	mov    %ebx,%edi
  402873:	e8 08 e4 ff ff       	callq  400c80 <alarm@plt>
  402878:	5b                   	pop    %rbx
  402879:	c3                   	retq   

000000000040287a <init_driver>:
  40287a:	55                   	push   %rbp
  40287b:	53                   	push   %rbx
  40287c:	48 83 ec 18          	sub    $0x18,%rsp
  402880:	48 89 fd             	mov    %rdi,%rbp
  402883:	be 01 00 00 00       	mov    $0x1,%esi
  402888:	bf 0d 00 00 00       	mov    $0xd,%edi
  40288d:	e8 2e e4 ff ff       	callq  400cc0 <signal@plt>
  402892:	be 01 00 00 00       	mov    $0x1,%esi
  402897:	bf 1d 00 00 00       	mov    $0x1d,%edi
  40289c:	e8 1f e4 ff ff       	callq  400cc0 <signal@plt>
  4028a1:	be 01 00 00 00       	mov    $0x1,%esi
  4028a6:	bf 1d 00 00 00       	mov    $0x1d,%edi
  4028ab:	e8 10 e4 ff ff       	callq  400cc0 <signal@plt>
  4028b0:	ba 00 00 00 00       	mov    $0x0,%edx
  4028b5:	be 01 00 00 00       	mov    $0x1,%esi
  4028ba:	bf 02 00 00 00       	mov    $0x2,%edi
  4028bf:	e8 1c e5 ff ff       	callq  400de0 <socket@plt>
  4028c4:	89 c3                	mov    %eax,%ebx
  4028c6:	85 c0                	test   %eax,%eax
  4028c8:	79 4f                	jns    402919 <init_driver+0x9f>
  4028ca:	48 b8 45 72 72 6f 72 	movabs $0x43203a726f727245,%rax
  4028d1:	3a 20 43 
  4028d4:	48 89 45 00          	mov    %rax,0x0(%rbp)
  4028d8:	48 b8 6c 69 65 6e 74 	movabs $0x6e7520746e65696c,%rax
  4028df:	20 75 6e 
  4028e2:	48 89 45 08          	mov    %rax,0x8(%rbp)
  4028e6:	48 b8 61 62 6c 65 20 	movabs $0x206f7420656c6261,%rax
  4028ed:	74 6f 20 
  4028f0:	48 89 45 10          	mov    %rax,0x10(%rbp)
  4028f4:	48 b8 63 72 65 61 74 	movabs $0x7320657461657263,%rax
  4028fb:	65 20 73 
  4028fe:	48 89 45 18          	mov    %rax,0x18(%rbp)
  402902:	c7 45 20 6f 63 6b 65 	movl   $0x656b636f,0x20(%rbp)
  402909:	66 c7 45 24 74 00    	movw   $0x74,0x24(%rbp)
  40290f:	b8 ff ff ff ff       	mov    $0xffffffff,%eax
  402914:	e9 23 01 00 00       	jmpq   402a3c <init_driver+0x1c2>
  402919:	bf 57 2f 40 00       	mov    $0x402f57,%edi
  40291e:	e8 ad e3 ff ff       	callq  400cd0 <gethostbyname@plt>
  402923:	48 85 c0             	test   %rax,%rax
  402926:	75 68                	jne    402990 <init_driver+0x116>
  402928:	48 b8 45 72 72 6f 72 	movabs $0x44203a726f727245,%rax
  40292f:	3a 20 44 
  402932:	48 89 45 00          	mov    %rax,0x0(%rbp)
  402936:	48 b8 4e 53 20 69 73 	movabs $0x6e7520736920534e,%rax
  40293d:	20 75 6e 
  402940:	48 89 45 08          	mov    %rax,0x8(%rbp)
  402944:	48 b8 61 62 6c 65 20 	movabs $0x206f7420656c6261,%rax
  40294b:	74 6f 20 
  40294e:	48 89 45 10          	mov    %rax,0x10(%rbp)
  402952:	48 b8 72 65 73 6f 6c 	movabs $0x2065766c6f736572,%rax
  402959:	76 65 20 
  40295c:	48 89 45 18          	mov    %rax,0x18(%rbp)
  402960:	48 b8 73 65 72 76 65 	movabs $0x6120726576726573,%rax
  402967:	72 20 61 
  40296a:	48 89 45 20          	mov    %rax,0x20(%rbp)
  40296e:	c7 45 28 64 64 72 65 	movl   $0x65726464,0x28(%rbp)
  402975:	66 c7 45 2c 73 73    	movw   $0x7373,0x2c(%rbp)
  40297b:	c6 45 2e 00          	movb   $0x0,0x2e(%rbp)
  40297f:	89 df                	mov    %ebx,%edi
  402981:	e8 0a e3 ff ff       	callq  400c90 <close@plt>
  402986:	b8 ff ff ff ff       	mov    $0xffffffff,%eax
  40298b:	e9 ac 00 00 00       	jmpq   402a3c <init_driver+0x1c2>
  402990:	48 c7 04 24 00 00 00 	movq   $0x0,(%rsp)
  402997:	00 
  402998:	48 c7 44 24 08 00 00 	movq   $0x0,0x8(%rsp)
  40299f:	00 00 
  4029a1:	66 c7 04 24 02 00    	movw   $0x2,(%rsp)
  4029a7:	48 8b 48 18          	mov    0x18(%rax),%rcx
  4029ab:	48 63 50 14          	movslq 0x14(%rax),%rdx
  4029af:	48 8d 74 24 04       	lea    0x4(%rsp),%rsi
  4029b4:	48 8b 39             	mov    (%rcx),%rdi
  4029b7:	e8 a4 e3 ff ff       	callq  400d60 <bcopy@plt>
  4029bc:	66 c7 44 24 02 3b 6e 	movw   $0x6e3b,0x2(%rsp)
  4029c3:	ba 10 00 00 00       	mov    $0x10,%edx
  4029c8:	48 89 e6             	mov    %rsp,%rsi
  4029cb:	89 df                	mov    %ebx,%edi
  4029cd:	e8 fe e3 ff ff       	callq  400dd0 <connect@plt>
  4029d2:	85 c0                	test   %eax,%eax
  4029d4:	79 50                	jns    402a26 <init_driver+0x1ac>
  4029d6:	48 b8 45 72 72 6f 72 	movabs $0x55203a726f727245,%rax
  4029dd:	3a 20 55 
  4029e0:	48 89 45 00          	mov    %rax,0x0(%rbp)
  4029e4:	48 b8 6e 61 62 6c 65 	movabs $0x6f7420656c62616e,%rax
  4029eb:	20 74 6f 
  4029ee:	48 89 45 08          	mov    %rax,0x8(%rbp)
  4029f2:	48 b8 20 63 6f 6e 6e 	movabs $0x7463656e6e6f6320,%rax
  4029f9:	65 63 74 
  4029fc:	48 89 45 10          	mov    %rax,0x10(%rbp)
  402a00:	48 b8 20 74 6f 20 73 	movabs $0x76726573206f7420,%rax
  402a07:	65 72 76 
  402a0a:	48 89 45 18          	mov    %rax,0x18(%rbp)
  402a0e:	66 c7 45 20 65 72    	movw   $0x7265,0x20(%rbp)
  402a14:	c6 45 22 00          	movb   $0x0,0x22(%rbp)
  402a18:	89 df                	mov    %ebx,%edi
  402a1a:	e8 71 e2 ff ff       	callq  400c90 <close@plt>
  402a1f:	b8 ff ff ff ff       	mov    $0xffffffff,%eax
  402a24:	eb 16                	jmp    402a3c <init_driver+0x1c2>
  402a26:	89 df                	mov    %ebx,%edi
  402a28:	e8 63 e2 ff ff       	callq  400c90 <close@plt>
  402a2d:	66 c7 45 00 4f 4b    	movw   $0x4b4f,0x0(%rbp)
  402a33:	c6 45 02 00          	movb   $0x0,0x2(%rbp)
  402a37:	b8 00 00 00 00       	mov    $0x0,%eax
  402a3c:	48 83 c4 18          	add    $0x18,%rsp
  402a40:	5b                   	pop    %rbx
  402a41:	5d                   	pop    %rbp
  402a42:	c3                   	retq   

0000000000402a43 <driver_post>:
  402a43:	53                   	push   %rbx
  402a44:	48 83 ec 10          	sub    $0x10,%rsp
  402a48:	4c 89 cb             	mov    %r9,%rbx
  402a4b:	45 85 c0             	test   %r8d,%r8d
  402a4e:	74 22                	je     402a72 <driver_post+0x2f>
  402a50:	48 89 ce             	mov    %rcx,%rsi
  402a53:	bf 65 34 40 00       	mov    $0x403465,%edi
  402a58:	b8 00 00 00 00       	mov    $0x0,%eax
  402a5d:	e8 fe e1 ff ff       	callq  400c60 <printf@plt>
  402a62:	66 c7 03 4f 4b       	movw   $0x4b4f,(%rbx)
  402a67:	c6 43 02 00          	movb   $0x0,0x2(%rbx)
  402a6b:	b8 00 00 00 00       	mov    $0x0,%eax
  402a70:	eb 39                	jmp    402aab <driver_post+0x68>
  402a72:	48 85 ff             	test   %rdi,%rdi
  402a75:	74 26                	je     402a9d <driver_post+0x5a>
  402a77:	80 3f 00             	cmpb   $0x0,(%rdi)
  402a7a:	74 21                	je     402a9d <driver_post+0x5a>
  402a7c:	4c 89 0c 24          	mov    %r9,(%rsp)
  402a80:	49 89 c9             	mov    %rcx,%r9
  402a83:	49 89 d0             	mov    %rdx,%r8
  402a86:	48 89 f9             	mov    %rdi,%rcx
  402a89:	48 89 f2             	mov    %rsi,%rdx
  402a8c:	be 6e 3b 00 00       	mov    $0x3b6e,%esi
  402a91:	bf 57 2f 40 00       	mov    $0x402f57,%edi
  402a96:	e8 9c f6 ff ff       	callq  402137 <submitr>
  402a9b:	eb 0e                	jmp    402aab <driver_post+0x68>
  402a9d:	66 c7 03 4f 4b       	movw   $0x4b4f,(%rbx)
  402aa2:	c6 43 02 00          	movb   $0x0,0x2(%rbx)
  402aa6:	b8 00 00 00 00       	mov    $0x0,%eax
  402aab:	48 83 c4 10          	add    $0x10,%rsp
  402aaf:	5b                   	pop    %rbx
  402ab0:	c3                   	retq   

0000000000402ab1 <check>:
  402ab1:	89 f8                	mov    %edi,%eax
  402ab3:	c1 e8 1c             	shr    $0x1c,%eax
  402ab6:	85 c0                	test   %eax,%eax
  402ab8:	74 1d                	je     402ad7 <check+0x26>
  402aba:	b9 00 00 00 00       	mov    $0x0,%ecx
  402abf:	eb 0b                	jmp    402acc <check+0x1b>
  402ac1:	89 f8                	mov    %edi,%eax
  402ac3:	d3 e8                	shr    %cl,%eax
  402ac5:	3c 0a                	cmp    $0xa,%al
  402ac7:	74 14                	je     402add <check+0x2c>
  402ac9:	83 c1 08             	add    $0x8,%ecx
  402acc:	83 f9 1f             	cmp    $0x1f,%ecx
  402acf:	7e f0                	jle    402ac1 <check+0x10>
  402ad1:	b8 01 00 00 00       	mov    $0x1,%eax
  402ad6:	c3                   	retq   
  402ad7:	b8 00 00 00 00       	mov    $0x0,%eax
  402adc:	c3                   	retq   
  402add:	b8 00 00 00 00       	mov    $0x0,%eax
  402ae2:	c3                   	retq   

0000000000402ae3 <gencookie>:
  402ae3:	53                   	push   %rbx
  402ae4:	83 c7 01             	add    $0x1,%edi
  402ae7:	e8 14 e1 ff ff       	callq  400c00 <srandom@plt>
  402aec:	e8 2f e2 ff ff       	callq  400d20 <random@plt>
  402af1:	89 c3                	mov    %eax,%ebx
  402af3:	89 c7                	mov    %eax,%edi
  402af5:	e8 b7 ff ff ff       	callq  402ab1 <check>
  402afa:	85 c0                	test   %eax,%eax
  402afc:	74 ee                	je     402aec <gencookie+0x9>
  402afe:	89 d8                	mov    %ebx,%eax
  402b00:	5b                   	pop    %rbx
  402b01:	c3                   	retq   
  402b02:	66 2e 0f 1f 84 00 00 	nopw   %cs:0x0(%rax,%rax,1)
  402b09:	00 00 00 
  402b0c:	0f 1f 40 00          	nopl   0x0(%rax)

0000000000402b10 <__libc_csu_init>:
  402b10:	41 57                	push   %r15
  402b12:	41 89 ff             	mov    %edi,%r15d
  402b15:	41 56                	push   %r14
  402b17:	49 89 f6             	mov    %rsi,%r14
  402b1a:	41 55                	push   %r13
  402b1c:	49 89 d5             	mov    %rdx,%r13
  402b1f:	41 54                	push   %r12
  402b21:	4c 8d 25 e8 12 20 00 	lea    0x2012e8(%rip),%r12        # 603e10 <__frame_dummy_init_array_entry>
  402b28:	55                   	push   %rbp
  402b29:	48 8d 2d e8 12 20 00 	lea    0x2012e8(%rip),%rbp        # 603e18 <__init_array_end>
  402b30:	53                   	push   %rbx
  402b31:	4c 29 e5             	sub    %r12,%rbp
  402b34:	31 db                	xor    %ebx,%ebx
  402b36:	48 c1 fd 03          	sar    $0x3,%rbp
  402b3a:	48 83 ec 08          	sub    $0x8,%rsp
  402b3e:	e8 6d e0 ff ff       	callq  400bb0 <_init>
  402b43:	48 85 ed             	test   %rbp,%rbp
  402b46:	74 1e                	je     402b66 <__libc_csu_init+0x56>
  402b48:	0f 1f 84 00 00 00 00 	nopl   0x0(%rax,%rax,1)
  402b4f:	00 
  402b50:	4c 89 ea             	mov    %r13,%rdx
  402b53:	4c 89 f6             	mov    %r14,%rsi
  402b56:	44 89 ff             	mov    %r15d,%edi
  402b59:	41 ff 14 dc          	callq  *(%r12,%rbx,8)
  402b5d:	48 83 c3 01          	add    $0x1,%rbx
  402b61:	48 39 eb             	cmp    %rbp,%rbx
  402b64:	75 ea                	jne    402b50 <__libc_csu_init+0x40>
  402b66:	48 83 c4 08          	add    $0x8,%rsp
  402b6a:	5b                   	pop    %rbx
  402b6b:	5d                   	pop    %rbp
  402b6c:	41 5c                	pop    %r12
  402b6e:	41 5d                	pop    %r13
  402b70:	41 5e                	pop    %r14
  402b72:	41 5f                	pop    %r15
  402b74:	c3                   	retq   
  402b75:	90                   	nop
  402b76:	66 2e 0f 1f 84 00 00 	nopw   %cs:0x0(%rax,%rax,1)
  402b7d:	00 00 00 

0000000000402b80 <__libc_csu_fini>:
  402b80:	f3 c3                	repz retq 

Disassembly of section .fini:

0000000000402b84 <_fini>:
  402b84:	48 83 ec 08          	sub    $0x8,%rsp
  402b88:	48 83 c4 08          	add    $0x8,%rsp
  402b8c:	c3                   	retq   
