
rtarget:     file format elf64-x86-64


Disassembly of section .init:

0000000000400bb0 <_init>:
  400bb0:	48 83 ec 08          	sub    $0x8,%rsp
  400bb4:	48 8b 05 3d 44 20 00 	mov    0x20443d(%rip),%rax        # 604ff8 <__gmon_start__>
  400bbb:	48 85 c0             	test   %rax,%rax
  400bbe:	74 05                	je     400bc5 <_init+0x15>
  400bc0:	e8 2b 02 00 00       	callq  400df0 <.plt.got>
  400bc5:	48 83 c4 08          	add    $0x8,%rsp
  400bc9:	c3                   	retq   

Disassembly of section .plt:

0000000000400bd0 <.plt>:
  400bd0:	ff 35 32 44 20 00    	pushq  0x204432(%rip)        # 605008 <_GLOBAL_OFFSET_TABLE_+0x8>
  400bd6:	ff 25 34 44 20 00    	jmpq   *0x204434(%rip)        # 605010 <_GLOBAL_OFFSET_TABLE_+0x10>
  400bdc:	0f 1f 40 00          	nopl   0x0(%rax)

0000000000400be0 <strcasecmp@plt>:
  400be0:	ff 25 32 44 20 00    	jmpq   *0x204432(%rip)        # 605018 <strcasecmp@GLIBC_2.2.5>
  400be6:	68 00 00 00 00       	pushq  $0x0
  400beb:	e9 e0 ff ff ff       	jmpq   400bd0 <.plt>

0000000000400bf0 <__errno_location@plt>:
  400bf0:	ff 25 2a 44 20 00    	jmpq   *0x20442a(%rip)        # 605020 <__errno_location@GLIBC_2.2.5>
  400bf6:	68 01 00 00 00       	pushq  $0x1
  400bfb:	e9 d0 ff ff ff       	jmpq   400bd0 <.plt>

0000000000400c00 <srandom@plt>:
  400c00:	ff 25 22 44 20 00    	jmpq   *0x204422(%rip)        # 605028 <srandom@GLIBC_2.2.5>
  400c06:	68 02 00 00 00       	pushq  $0x2
  400c0b:	e9 c0 ff ff ff       	jmpq   400bd0 <.plt>

0000000000400c10 <strncmp@plt>:
  400c10:	ff 25 1a 44 20 00    	jmpq   *0x20441a(%rip)        # 605030 <strncmp@GLIBC_2.2.5>
  400c16:	68 03 00 00 00       	pushq  $0x3
  400c1b:	e9 b0 ff ff ff       	jmpq   400bd0 <.plt>

0000000000400c20 <strcpy@plt>:
  400c20:	ff 25 12 44 20 00    	jmpq   *0x204412(%rip)        # 605038 <strcpy@GLIBC_2.2.5>
  400c26:	68 04 00 00 00       	pushq  $0x4
  400c2b:	e9 a0 ff ff ff       	jmpq   400bd0 <.plt>

0000000000400c30 <puts@plt>:
  400c30:	ff 25 0a 44 20 00    	jmpq   *0x20440a(%rip)        # 605040 <puts@GLIBC_2.2.5>
  400c36:	68 05 00 00 00       	pushq  $0x5
  400c3b:	e9 90 ff ff ff       	jmpq   400bd0 <.plt>

0000000000400c40 <write@plt>:
  400c40:	ff 25 02 44 20 00    	jmpq   *0x204402(%rip)        # 605048 <write@GLIBC_2.2.5>
  400c46:	68 06 00 00 00       	pushq  $0x6
  400c4b:	e9 80 ff ff ff       	jmpq   400bd0 <.plt>

0000000000400c50 <mmap@plt>:
  400c50:	ff 25 fa 43 20 00    	jmpq   *0x2043fa(%rip)        # 605050 <mmap@GLIBC_2.2.5>
  400c56:	68 07 00 00 00       	pushq  $0x7
  400c5b:	e9 70 ff ff ff       	jmpq   400bd0 <.plt>

0000000000400c60 <printf@plt>:
  400c60:	ff 25 f2 43 20 00    	jmpq   *0x2043f2(%rip)        # 605058 <printf@GLIBC_2.2.5>
  400c66:	68 08 00 00 00       	pushq  $0x8
  400c6b:	e9 60 ff ff ff       	jmpq   400bd0 <.plt>

0000000000400c70 <memset@plt>:
  400c70:	ff 25 ea 43 20 00    	jmpq   *0x2043ea(%rip)        # 605060 <memset@GLIBC_2.2.5>
  400c76:	68 09 00 00 00       	pushq  $0x9
  400c7b:	e9 50 ff ff ff       	jmpq   400bd0 <.plt>

0000000000400c80 <alarm@plt>:
  400c80:	ff 25 e2 43 20 00    	jmpq   *0x2043e2(%rip)        # 605068 <alarm@GLIBC_2.2.5>
  400c86:	68 0a 00 00 00       	pushq  $0xa
  400c8b:	e9 40 ff ff ff       	jmpq   400bd0 <.plt>

0000000000400c90 <close@plt>:
  400c90:	ff 25 da 43 20 00    	jmpq   *0x2043da(%rip)        # 605070 <close@GLIBC_2.2.5>
  400c96:	68 0b 00 00 00       	pushq  $0xb
  400c9b:	e9 30 ff ff ff       	jmpq   400bd0 <.plt>

0000000000400ca0 <read@plt>:
  400ca0:	ff 25 d2 43 20 00    	jmpq   *0x2043d2(%rip)        # 605078 <read@GLIBC_2.2.5>
  400ca6:	68 0c 00 00 00       	pushq  $0xc
  400cab:	e9 20 ff ff ff       	jmpq   400bd0 <.plt>

0000000000400cb0 <__libc_start_main@plt>:
  400cb0:	ff 25 ca 43 20 00    	jmpq   *0x2043ca(%rip)        # 605080 <__libc_start_main@GLIBC_2.2.5>
  400cb6:	68 0d 00 00 00       	pushq  $0xd
  400cbb:	e9 10 ff ff ff       	jmpq   400bd0 <.plt>

0000000000400cc0 <signal@plt>:
  400cc0:	ff 25 c2 43 20 00    	jmpq   *0x2043c2(%rip)        # 605088 <signal@GLIBC_2.2.5>
  400cc6:	68 0e 00 00 00       	pushq  $0xe
  400ccb:	e9 00 ff ff ff       	jmpq   400bd0 <.plt>

0000000000400cd0 <gethostbyname@plt>:
  400cd0:	ff 25 ba 43 20 00    	jmpq   *0x2043ba(%rip)        # 605090 <gethostbyname@GLIBC_2.2.5>
  400cd6:	68 0f 00 00 00       	pushq  $0xf
  400cdb:	e9 f0 fe ff ff       	jmpq   400bd0 <.plt>

0000000000400ce0 <fprintf@plt>:
  400ce0:	ff 25 b2 43 20 00    	jmpq   *0x2043b2(%rip)        # 605098 <fprintf@GLIBC_2.2.5>
  400ce6:	68 10 00 00 00       	pushq  $0x10
  400ceb:	e9 e0 fe ff ff       	jmpq   400bd0 <.plt>

0000000000400cf0 <strtol@plt>:
  400cf0:	ff 25 aa 43 20 00    	jmpq   *0x2043aa(%rip)        # 6050a0 <strtol@GLIBC_2.2.5>
  400cf6:	68 11 00 00 00       	pushq  $0x11
  400cfb:	e9 d0 fe ff ff       	jmpq   400bd0 <.plt>

0000000000400d00 <memcpy@plt>:
  400d00:	ff 25 a2 43 20 00    	jmpq   *0x2043a2(%rip)        # 6050a8 <memcpy@GLIBC_2.14>
  400d06:	68 12 00 00 00       	pushq  $0x12
  400d0b:	e9 c0 fe ff ff       	jmpq   400bd0 <.plt>

0000000000400d10 <time@plt>:
  400d10:	ff 25 9a 43 20 00    	jmpq   *0x20439a(%rip)        # 6050b0 <time@GLIBC_2.2.5>
  400d16:	68 13 00 00 00       	pushq  $0x13
  400d1b:	e9 b0 fe ff ff       	jmpq   400bd0 <.plt>

0000000000400d20 <random@plt>:
  400d20:	ff 25 92 43 20 00    	jmpq   *0x204392(%rip)        # 6050b8 <random@GLIBC_2.2.5>
  400d26:	68 14 00 00 00       	pushq  $0x14
  400d2b:	e9 a0 fe ff ff       	jmpq   400bd0 <.plt>

0000000000400d30 <_IO_getc@plt>:
  400d30:	ff 25 8a 43 20 00    	jmpq   *0x20438a(%rip)        # 6050c0 <_IO_getc@GLIBC_2.2.5>
  400d36:	68 15 00 00 00       	pushq  $0x15
  400d3b:	e9 90 fe ff ff       	jmpq   400bd0 <.plt>

0000000000400d40 <__isoc99_sscanf@plt>:
  400d40:	ff 25 82 43 20 00    	jmpq   *0x204382(%rip)        # 6050c8 <__isoc99_sscanf@GLIBC_2.7>
  400d46:	68 16 00 00 00       	pushq  $0x16
  400d4b:	e9 80 fe ff ff       	jmpq   400bd0 <.plt>

0000000000400d50 <munmap@plt>:
  400d50:	ff 25 7a 43 20 00    	jmpq   *0x20437a(%rip)        # 6050d0 <munmap@GLIBC_2.2.5>
  400d56:	68 17 00 00 00       	pushq  $0x17
  400d5b:	e9 70 fe ff ff       	jmpq   400bd0 <.plt>

0000000000400d60 <bcopy@plt>:
  400d60:	ff 25 72 43 20 00    	jmpq   *0x204372(%rip)        # 6050d8 <bcopy@GLIBC_2.2.5>
  400d66:	68 18 00 00 00       	pushq  $0x18
  400d6b:	e9 60 fe ff ff       	jmpq   400bd0 <.plt>

0000000000400d70 <fopen@plt>:
  400d70:	ff 25 6a 43 20 00    	jmpq   *0x20436a(%rip)        # 6050e0 <fopen@GLIBC_2.2.5>
  400d76:	68 19 00 00 00       	pushq  $0x19
  400d7b:	e9 50 fe ff ff       	jmpq   400bd0 <.plt>

0000000000400d80 <getopt@plt>:
  400d80:	ff 25 62 43 20 00    	jmpq   *0x204362(%rip)        # 6050e8 <getopt@GLIBC_2.2.5>
  400d86:	68 1a 00 00 00       	pushq  $0x1a
  400d8b:	e9 40 fe ff ff       	jmpq   400bd0 <.plt>

0000000000400d90 <strtoul@plt>:
  400d90:	ff 25 5a 43 20 00    	jmpq   *0x20435a(%rip)        # 6050f0 <strtoul@GLIBC_2.2.5>
  400d96:	68 1b 00 00 00       	pushq  $0x1b
  400d9b:	e9 30 fe ff ff       	jmpq   400bd0 <.plt>

0000000000400da0 <gethostname@plt>:
  400da0:	ff 25 52 43 20 00    	jmpq   *0x204352(%rip)        # 6050f8 <gethostname@GLIBC_2.2.5>
  400da6:	68 1c 00 00 00       	pushq  $0x1c
  400dab:	e9 20 fe ff ff       	jmpq   400bd0 <.plt>

0000000000400db0 <sprintf@plt>:
  400db0:	ff 25 4a 43 20 00    	jmpq   *0x20434a(%rip)        # 605100 <sprintf@GLIBC_2.2.5>
  400db6:	68 1d 00 00 00       	pushq  $0x1d
  400dbb:	e9 10 fe ff ff       	jmpq   400bd0 <.plt>

0000000000400dc0 <exit@plt>:
  400dc0:	ff 25 42 43 20 00    	jmpq   *0x204342(%rip)        # 605108 <exit@GLIBC_2.2.5>
  400dc6:	68 1e 00 00 00       	pushq  $0x1e
  400dcb:	e9 00 fe ff ff       	jmpq   400bd0 <.plt>

0000000000400dd0 <connect@plt>:
  400dd0:	ff 25 3a 43 20 00    	jmpq   *0x20433a(%rip)        # 605110 <connect@GLIBC_2.2.5>
  400dd6:	68 1f 00 00 00       	pushq  $0x1f
  400ddb:	e9 f0 fd ff ff       	jmpq   400bd0 <.plt>

0000000000400de0 <socket@plt>:
  400de0:	ff 25 32 43 20 00    	jmpq   *0x204332(%rip)        # 605118 <socket@GLIBC_2.2.5>
  400de6:	68 20 00 00 00       	pushq  $0x20
  400deb:	e9 e0 fd ff ff       	jmpq   400bd0 <.plt>

Disassembly of section .plt.got:

0000000000400df0 <.plt.got>:
  400df0:	ff 25 02 42 20 00    	jmpq   *0x204202(%rip)        # 604ff8 <__gmon_start__>
  400df6:	66 90                	xchg   %ax,%ax

Disassembly of section .text:

0000000000400e00 <_start>:
  400e00:	31 ed                	xor    %ebp,%ebp
  400e02:	49 89 d1             	mov    %rdx,%r9
  400e05:	5e                   	pop    %rsi
  400e06:	48 89 e2             	mov    %rsp,%rdx
  400e09:	48 83 e4 f0          	and    $0xfffffffffffffff0,%rsp
  400e0d:	50                   	push   %rax
  400e0e:	54                   	push   %rsp
  400e0f:	49 c7 c0 a0 2c 40 00 	mov    $0x402ca0,%r8
  400e16:	48 c7 c1 30 2c 40 00 	mov    $0x402c30,%rcx
  400e1d:	48 c7 c7 c0 10 40 00 	mov    $0x4010c0,%rdi
  400e24:	e8 87 fe ff ff       	callq  400cb0 <__libc_start_main@plt>
  400e29:	f4                   	hlt    
  400e2a:	66 0f 1f 44 00 00    	nopw   0x0(%rax,%rax,1)

0000000000400e30 <deregister_tm_clones>:
  400e30:	b8 97 54 60 00       	mov    $0x605497,%eax
  400e35:	55                   	push   %rbp
  400e36:	48 2d 90 54 60 00    	sub    $0x605490,%rax
  400e3c:	48 83 f8 0e          	cmp    $0xe,%rax
  400e40:	48 89 e5             	mov    %rsp,%rbp
  400e43:	77 02                	ja     400e47 <deregister_tm_clones+0x17>
  400e45:	5d                   	pop    %rbp
  400e46:	c3                   	retq   
  400e47:	b8 00 00 00 00       	mov    $0x0,%eax
  400e4c:	48 85 c0             	test   %rax,%rax
  400e4f:	74 f4                	je     400e45 <deregister_tm_clones+0x15>
  400e51:	5d                   	pop    %rbp
  400e52:	bf 90 54 60 00       	mov    $0x605490,%edi
  400e57:	ff e0                	jmpq   *%rax
  400e59:	0f 1f 80 00 00 00 00 	nopl   0x0(%rax)

0000000000400e60 <register_tm_clones>:
  400e60:	b8 90 54 60 00       	mov    $0x605490,%eax
  400e65:	55                   	push   %rbp
  400e66:	48 2d 90 54 60 00    	sub    $0x605490,%rax
  400e6c:	48 c1 f8 03          	sar    $0x3,%rax
  400e70:	48 89 e5             	mov    %rsp,%rbp
  400e73:	48 89 c2             	mov    %rax,%rdx
  400e76:	48 c1 ea 3f          	shr    $0x3f,%rdx
  400e7a:	48 01 d0             	add    %rdx,%rax
  400e7d:	48 d1 f8             	sar    %rax
  400e80:	75 02                	jne    400e84 <register_tm_clones+0x24>
  400e82:	5d                   	pop    %rbp
  400e83:	c3                   	retq   
  400e84:	ba 00 00 00 00       	mov    $0x0,%edx
  400e89:	48 85 d2             	test   %rdx,%rdx
  400e8c:	74 f4                	je     400e82 <register_tm_clones+0x22>
  400e8e:	5d                   	pop    %rbp
  400e8f:	48 89 c6             	mov    %rax,%rsi
  400e92:	bf 90 54 60 00       	mov    $0x605490,%edi
  400e97:	ff e2                	jmpq   *%rdx
  400e99:	0f 1f 80 00 00 00 00 	nopl   0x0(%rax)

0000000000400ea0 <__do_global_dtors_aux>:
  400ea0:	80 3d 11 46 20 00 00 	cmpb   $0x0,0x204611(%rip)        # 6054b8 <completed.6355>
  400ea7:	75 11                	jne    400eba <__do_global_dtors_aux+0x1a>
  400ea9:	55                   	push   %rbp
  400eaa:	48 89 e5             	mov    %rsp,%rbp
  400ead:	e8 7e ff ff ff       	callq  400e30 <deregister_tm_clones>
  400eb2:	5d                   	pop    %rbp
  400eb3:	c6 05 fe 45 20 00 01 	movb   $0x1,0x2045fe(%rip)        # 6054b8 <completed.6355>
  400eba:	f3 c3                	repz retq 
  400ebc:	0f 1f 40 00          	nopl   0x0(%rax)

0000000000400ec0 <frame_dummy>:
  400ec0:	48 83 3d 58 3f 20 00 	cmpq   $0x0,0x203f58(%rip)        # 604e20 <__JCR_END__>
  400ec7:	00 
  400ec8:	74 1e                	je     400ee8 <frame_dummy+0x28>
  400eca:	b8 00 00 00 00       	mov    $0x0,%eax
  400ecf:	48 85 c0             	test   %rax,%rax
  400ed2:	74 14                	je     400ee8 <frame_dummy+0x28>
  400ed4:	55                   	push   %rbp
  400ed5:	bf 20 4e 60 00       	mov    $0x604e20,%edi
  400eda:	48 89 e5             	mov    %rsp,%rbp
  400edd:	ff d0                	callq  *%rax
  400edf:	5d                   	pop    %rbp
  400ee0:	e9 7b ff ff ff       	jmpq   400e60 <register_tm_clones>
  400ee5:	0f 1f 00             	nopl   (%rax)
  400ee8:	e9 73 ff ff ff       	jmpq   400e60 <register_tm_clones>
  400eed:	0f 1f 00             	nopl   (%rax)

0000000000400ef0 <usage>:
  400ef0:	48 83 ec 08          	sub    $0x8,%rsp
  400ef4:	48 89 fe             	mov    %rdi,%rsi
  400ef7:	83 3d ea 45 20 00 00 	cmpl   $0x0,0x2045ea(%rip)        # 6054e8 <is_checker>
  400efe:	74 39                	je     400f39 <usage+0x49>
  400f00:	bf c0 2c 40 00       	mov    $0x402cc0,%edi
  400f05:	b8 00 00 00 00       	mov    $0x0,%eax
  400f0a:	e8 51 fd ff ff       	callq  400c60 <printf@plt>
  400f0f:	bf f8 2c 40 00       	mov    $0x402cf8,%edi
  400f14:	e8 17 fd ff ff       	callq  400c30 <puts@plt>
  400f19:	bf 70 2e 40 00       	mov    $0x402e70,%edi
  400f1e:	e8 0d fd ff ff       	callq  400c30 <puts@plt>
  400f23:	bf 20 2d 40 00       	mov    $0x402d20,%edi
  400f28:	e8 03 fd ff ff       	callq  400c30 <puts@plt>
  400f2d:	bf 8a 2e 40 00       	mov    $0x402e8a,%edi
  400f32:	e8 f9 fc ff ff       	callq  400c30 <puts@plt>
  400f37:	eb 2d                	jmp    400f66 <usage+0x76>
  400f39:	bf a6 2e 40 00       	mov    $0x402ea6,%edi
  400f3e:	b8 00 00 00 00       	mov    $0x0,%eax
  400f43:	e8 18 fd ff ff       	callq  400c60 <printf@plt>
  400f48:	bf 48 2d 40 00       	mov    $0x402d48,%edi
  400f4d:	e8 de fc ff ff       	callq  400c30 <puts@plt>
  400f52:	bf 70 2d 40 00       	mov    $0x402d70,%edi
  400f57:	e8 d4 fc ff ff       	callq  400c30 <puts@plt>
  400f5c:	bf c4 2e 40 00       	mov    $0x402ec4,%edi
  400f61:	e8 ca fc ff ff       	callq  400c30 <puts@plt>
  400f66:	bf 00 00 00 00       	mov    $0x0,%edi
  400f6b:	e8 50 fe ff ff       	callq  400dc0 <exit@plt>

0000000000400f70 <initialize_target>:
  400f70:	55                   	push   %rbp
  400f71:	53                   	push   %rbx
  400f72:	48 81 ec 08 21 00 00 	sub    $0x2108,%rsp
  400f79:	89 f5                	mov    %esi,%ebp
  400f7b:	89 3d 57 45 20 00    	mov    %edi,0x204557(%rip)        # 6054d8 <check_level>
  400f81:	8b 3d c1 41 20 00    	mov    0x2041c1(%rip),%edi        # 605148 <target_id>
  400f87:	e8 77 1c 00 00       	callq  402c03 <gencookie>
  400f8c:	89 05 52 45 20 00    	mov    %eax,0x204552(%rip)        # 6054e4 <cookie>
  400f92:	89 c7                	mov    %eax,%edi
  400f94:	e8 6a 1c 00 00       	callq  402c03 <gencookie>
  400f99:	89 05 41 45 20 00    	mov    %eax,0x204541(%rip)        # 6054e0 <authkey>
  400f9f:	8b 05 a3 41 20 00    	mov    0x2041a3(%rip),%eax        # 605148 <target_id>
  400fa5:	8d 78 01             	lea    0x1(%rax),%edi
  400fa8:	e8 53 fc ff ff       	callq  400c00 <srandom@plt>
  400fad:	e8 6e fd ff ff       	callq  400d20 <random@plt>
  400fb2:	89 c7                	mov    %eax,%edi
  400fb4:	e8 ca 02 00 00       	callq  401283 <scramble>
  400fb9:	89 c3                	mov    %eax,%ebx
  400fbb:	85 ed                	test   %ebp,%ebp
  400fbd:	74 18                	je     400fd7 <initialize_target+0x67>
  400fbf:	bf 00 00 00 00       	mov    $0x0,%edi
  400fc4:	e8 47 fd ff ff       	callq  400d10 <time@plt>
  400fc9:	89 c7                	mov    %eax,%edi
  400fcb:	e8 30 fc ff ff       	callq  400c00 <srandom@plt>
  400fd0:	e8 4b fd ff ff       	callq  400d20 <random@plt>
  400fd5:	eb 05                	jmp    400fdc <initialize_target+0x6c>
  400fd7:	b8 00 00 00 00       	mov    $0x0,%eax
  400fdc:	01 c3                	add    %eax,%ebx
  400fde:	0f b7 db             	movzwl %bx,%ebx
  400fe1:	8d 04 dd 00 01 00 00 	lea    0x100(,%rbx,8),%eax
  400fe8:	89 c0                	mov    %eax,%eax
  400fea:	48 89 05 8f 44 20 00 	mov    %rax,0x20448f(%rip)        # 605480 <buf_offset>
  400ff1:	c6 05 10 51 20 00 72 	movb   $0x72,0x205110(%rip)        # 606108 <target_prefix>
  400ff8:	83 3d 89 44 20 00 00 	cmpl   $0x0,0x204489(%rip)        # 605488 <notify>
  400fff:	0f 84 b1 00 00 00    	je     4010b6 <initialize_target+0x146>
  401005:	83 3d dc 44 20 00 00 	cmpl   $0x0,0x2044dc(%rip)        # 6054e8 <is_checker>
  40100c:	0f 85 a4 00 00 00    	jne    4010b6 <initialize_target+0x146>
  401012:	be 00 01 00 00       	mov    $0x100,%esi
  401017:	48 89 e7             	mov    %rsp,%rdi
  40101a:	e8 81 fd ff ff       	callq  400da0 <gethostname@plt>
  40101f:	85 c0                	test   %eax,%eax
  401021:	74 25                	je     401048 <initialize_target+0xd8>
  401023:	bf a0 2d 40 00       	mov    $0x402da0,%edi
  401028:	e8 03 fc ff ff       	callq  400c30 <puts@plt>
  40102d:	bf 08 00 00 00       	mov    $0x8,%edi
  401032:	e8 89 fd ff ff       	callq  400dc0 <exit@plt>
  401037:	48 89 e6             	mov    %rsp,%rsi
  40103a:	e8 a1 fb ff ff       	callq  400be0 <strcasecmp@plt>
  40103f:	85 c0                	test   %eax,%eax
  401041:	74 21                	je     401064 <initialize_target+0xf4>
  401043:	83 c3 01             	add    $0x1,%ebx
  401046:	eb 05                	jmp    40104d <initialize_target+0xdd>
  401048:	bb 00 00 00 00       	mov    $0x0,%ebx
  40104d:	48 63 c3             	movslq %ebx,%rax
  401050:	48 8b 3c c5 60 51 60 	mov    0x605160(,%rax,8),%rdi
  401057:	00 
  401058:	48 85 ff             	test   %rdi,%rdi
  40105b:	75 da                	jne    401037 <initialize_target+0xc7>
  40105d:	b8 00 00 00 00       	mov    $0x0,%eax
  401062:	eb 05                	jmp    401069 <initialize_target+0xf9>
  401064:	b8 01 00 00 00       	mov    $0x1,%eax
  401069:	85 c0                	test   %eax,%eax
  40106b:	75 17                	jne    401084 <initialize_target+0x114>
  40106d:	48 89 e6             	mov    %rsp,%rsi
  401070:	bf d8 2d 40 00       	mov    $0x402dd8,%edi
  401075:	e8 e6 fb ff ff       	callq  400c60 <printf@plt>
  40107a:	bf 08 00 00 00       	mov    $0x8,%edi
  40107f:	e8 3c fd ff ff       	callq  400dc0 <exit@plt>
  401084:	48 8d bc 24 00 01 00 	lea    0x100(%rsp),%rdi
  40108b:	00 
  40108c:	e8 09 19 00 00       	callq  40299a <init_driver>
  401091:	85 c0                	test   %eax,%eax
  401093:	79 21                	jns    4010b6 <initialize_target+0x146>
  401095:	48 8d b4 24 00 01 00 	lea    0x100(%rsp),%rsi
  40109c:	00 
  40109d:	bf 18 2e 40 00       	mov    $0x402e18,%edi
  4010a2:	b8 00 00 00 00       	mov    $0x0,%eax
  4010a7:	e8 b4 fb ff ff       	callq  400c60 <printf@plt>
  4010ac:	bf 08 00 00 00       	mov    $0x8,%edi
  4010b1:	e8 0a fd ff ff       	callq  400dc0 <exit@plt>
  4010b6:	48 81 c4 08 21 00 00 	add    $0x2108,%rsp
  4010bd:	5b                   	pop    %rbx
  4010be:	5d                   	pop    %rbp
  4010bf:	c3                   	retq   

00000000004010c0 <main>:
  4010c0:	41 56                	push   %r14
  4010c2:	41 55                	push   %r13
  4010c4:	41 54                	push   %r12
  4010c6:	55                   	push   %rbp
  4010c7:	53                   	push   %rbx
  4010c8:	41 89 fc             	mov    %edi,%r12d
  4010cb:	48 89 f3             	mov    %rsi,%rbx
  4010ce:	be c1 1d 40 00       	mov    $0x401dc1,%esi
  4010d3:	bf 0b 00 00 00       	mov    $0xb,%edi
  4010d8:	e8 e3 fb ff ff       	callq  400cc0 <signal@plt>
  4010dd:	be 73 1d 40 00       	mov    $0x401d73,%esi
  4010e2:	bf 07 00 00 00       	mov    $0x7,%edi
  4010e7:	e8 d4 fb ff ff       	callq  400cc0 <signal@plt>
  4010ec:	be 0f 1e 40 00       	mov    $0x401e0f,%esi
  4010f1:	bf 04 00 00 00       	mov    $0x4,%edi
  4010f6:	e8 c5 fb ff ff       	callq  400cc0 <signal@plt>
  4010fb:	83 3d e6 43 20 00 00 	cmpl   $0x0,0x2043e6(%rip)        # 6054e8 <is_checker>
  401102:	74 20                	je     401124 <main+0x64>
  401104:	be 5d 1e 40 00       	mov    $0x401e5d,%esi
  401109:	bf 0e 00 00 00       	mov    $0xe,%edi
  40110e:	e8 ad fb ff ff       	callq  400cc0 <signal@plt>
  401113:	bf 05 00 00 00       	mov    $0x5,%edi
  401118:	e8 63 fb ff ff       	callq  400c80 <alarm@plt>
  40111d:	bd e2 2e 40 00       	mov    $0x402ee2,%ebp
  401122:	eb 05                	jmp    401129 <main+0x69>
  401124:	bd dd 2e 40 00       	mov    $0x402edd,%ebp
  401129:	48 8b 05 70 43 20 00 	mov    0x204370(%rip),%rax        # 6054a0 <stdin@@GLIBC_2.2.5>
  401130:	48 89 05 99 43 20 00 	mov    %rax,0x204399(%rip)        # 6054d0 <infile>
  401137:	41 bd 00 00 00 00    	mov    $0x0,%r13d
  40113d:	41 be 00 00 00 00    	mov    $0x0,%r14d
  401143:	e9 b9 00 00 00       	jmpq   401201 <main+0x141>
  401148:	83 e8 61             	sub    $0x61,%eax
  40114b:	3c 10                	cmp    $0x10,%al
  40114d:	0f 87 93 00 00 00    	ja     4011e6 <main+0x126>
  401153:	0f b6 c0             	movzbl %al,%eax
  401156:	ff 24 c5 28 2f 40 00 	jmpq   *0x402f28(,%rax,8)
  40115d:	48 8b 3b             	mov    (%rbx),%rdi
  401160:	e8 8b fd ff ff       	callq  400ef0 <usage>
  401165:	be 7d 32 40 00       	mov    $0x40327d,%esi
  40116a:	48 8b 3d 37 43 20 00 	mov    0x204337(%rip),%rdi        # 6054a8 <optarg@@GLIBC_2.2.5>
  401171:	e8 fa fb ff ff       	callq  400d70 <fopen@plt>
  401176:	48 89 05 53 43 20 00 	mov    %rax,0x204353(%rip)        # 6054d0 <infile>
  40117d:	48 85 c0             	test   %rax,%rax
  401180:	75 7f                	jne    401201 <main+0x141>
  401182:	48 8b 15 1f 43 20 00 	mov    0x20431f(%rip),%rdx        # 6054a8 <optarg@@GLIBC_2.2.5>
  401189:	be ea 2e 40 00       	mov    $0x402eea,%esi
  40118e:	48 8b 3d 1b 43 20 00 	mov    0x20431b(%rip),%rdi        # 6054b0 <stderr@@GLIBC_2.2.5>
  401195:	e8 46 fb ff ff       	callq  400ce0 <fprintf@plt>
  40119a:	b8 01 00 00 00       	mov    $0x1,%eax
  40119f:	e9 d6 00 00 00       	jmpq   40127a <main+0x1ba>
  4011a4:	ba 10 00 00 00       	mov    $0x10,%edx
  4011a9:	be 00 00 00 00       	mov    $0x0,%esi
  4011ae:	48 8b 3d f3 42 20 00 	mov    0x2042f3(%rip),%rdi        # 6054a8 <optarg@@GLIBC_2.2.5>
  4011b5:	e8 d6 fb ff ff       	callq  400d90 <strtoul@plt>
  4011ba:	41 89 c6             	mov    %eax,%r14d
  4011bd:	eb 42                	jmp    401201 <main+0x141>
  4011bf:	ba 0a 00 00 00       	mov    $0xa,%edx
  4011c4:	be 00 00 00 00       	mov    $0x0,%esi
  4011c9:	48 8b 3d d8 42 20 00 	mov    0x2042d8(%rip),%rdi        # 6054a8 <optarg@@GLIBC_2.2.5>
  4011d0:	e8 1b fb ff ff       	callq  400cf0 <strtol@plt>
  4011d5:	41 89 c5             	mov    %eax,%r13d
  4011d8:	eb 27                	jmp    401201 <main+0x141>
  4011da:	c7 05 a4 42 20 00 00 	movl   $0x0,0x2042a4(%rip)        # 605488 <notify>
  4011e1:	00 00 00 
  4011e4:	eb 1b                	jmp    401201 <main+0x141>
  4011e6:	40 0f be f6          	movsbl %sil,%esi
  4011ea:	bf 07 2f 40 00       	mov    $0x402f07,%edi
  4011ef:	b8 00 00 00 00       	mov    $0x0,%eax
  4011f4:	e8 67 fa ff ff       	callq  400c60 <printf@plt>
  4011f9:	48 8b 3b             	mov    (%rbx),%rdi
  4011fc:	e8 ef fc ff ff       	callq  400ef0 <usage>
  401201:	48 89 ea             	mov    %rbp,%rdx
  401204:	48 89 de             	mov    %rbx,%rsi
  401207:	44 89 e7             	mov    %r12d,%edi
  40120a:	e8 71 fb ff ff       	callq  400d80 <getopt@plt>
  40120f:	89 c6                	mov    %eax,%esi
  401211:	3c ff                	cmp    $0xff,%al
  401213:	0f 85 2f ff ff ff    	jne    401148 <main+0x88>
  401219:	be 01 00 00 00       	mov    $0x1,%esi
  40121e:	44 89 ef             	mov    %r13d,%edi
  401221:	e8 4a fd ff ff       	callq  400f70 <initialize_target>
  401226:	83 3d bb 42 20 00 00 	cmpl   $0x0,0x2042bb(%rip)        # 6054e8 <is_checker>
  40122d:	74 25                	je     401254 <main+0x194>
  40122f:	44 3b 35 aa 42 20 00 	cmp    0x2042aa(%rip),%r14d        # 6054e0 <authkey>
  401236:	74 1c                	je     401254 <main+0x194>
  401238:	44 89 f6             	mov    %r14d,%esi
  40123b:	bf 40 2e 40 00       	mov    $0x402e40,%edi
  401240:	b8 00 00 00 00       	mov    $0x0,%eax
  401245:	e8 16 fa ff ff       	callq  400c60 <printf@plt>
  40124a:	b8 00 00 00 00       	mov    $0x0,%eax
  40124f:	e8 27 08 00 00       	callq  401a7b <check_fail>
  401254:	8b 35 8a 42 20 00    	mov    0x20428a(%rip),%esi        # 6054e4 <cookie>
  40125a:	bf 1a 2f 40 00       	mov    $0x402f1a,%edi
  40125f:	b8 00 00 00 00       	mov    $0x0,%eax
  401264:	e8 f7 f9 ff ff       	callq  400c60 <printf@plt>
  401269:	48 8b 3d 10 42 20 00 	mov    0x204210(%rip),%rdi        # 605480 <buf_offset>
  401270:	e8 36 0c 00 00       	callq  401eab <launch>
  401275:	b8 00 00 00 00       	mov    $0x0,%eax
  40127a:	5b                   	pop    %rbx
  40127b:	5d                   	pop    %rbp
  40127c:	41 5c                	pop    %r12
  40127e:	41 5d                	pop    %r13
  401280:	41 5e                	pop    %r14
  401282:	c3                   	retq   

0000000000401283 <scramble>:
  401283:	b8 00 00 00 00       	mov    $0x0,%eax
  401288:	eb 11                	jmp    40129b <scramble+0x18>
  40128a:	69 c8 e9 88 00 00    	imul   $0x88e9,%eax,%ecx
  401290:	01 f9                	add    %edi,%ecx
  401292:	89 c2                	mov    %eax,%edx
  401294:	89 4c 94 d0          	mov    %ecx,-0x30(%rsp,%rdx,4)
  401298:	83 c0 01             	add    $0x1,%eax
  40129b:	83 f8 09             	cmp    $0x9,%eax
  40129e:	76 ea                	jbe    40128a <scramble+0x7>
  4012a0:	8b 44 24 f0          	mov    -0x10(%rsp),%eax
  4012a4:	69 c0 0a ba 00 00    	imul   $0xba0a,%eax,%eax
  4012aa:	89 44 24 f0          	mov    %eax,-0x10(%rsp)
  4012ae:	8b 44 24 f4          	mov    -0xc(%rsp),%eax
  4012b2:	69 c0 c8 69 00 00    	imul   $0x69c8,%eax,%eax
  4012b8:	89 44 24 f4          	mov    %eax,-0xc(%rsp)
  4012bc:	8b 44 24 d4          	mov    -0x2c(%rsp),%eax
  4012c0:	69 c0 5e 30 00 00    	imul   $0x305e,%eax,%eax
  4012c6:	89 44 24 d4          	mov    %eax,-0x2c(%rsp)
  4012ca:	8b 44 24 d4          	mov    -0x2c(%rsp),%eax
  4012ce:	69 c0 6a 34 00 00    	imul   $0x346a,%eax,%eax
  4012d4:	89 44 24 d4          	mov    %eax,-0x2c(%rsp)
  4012d8:	8b 44 24 e0          	mov    -0x20(%rsp),%eax
  4012dc:	69 c0 15 b3 00 00    	imul   $0xb315,%eax,%eax
  4012e2:	89 44 24 e0          	mov    %eax,-0x20(%rsp)
  4012e6:	8b 44 24 dc          	mov    -0x24(%rsp),%eax
  4012ea:	69 c0 b8 d0 00 00    	imul   $0xd0b8,%eax,%eax
  4012f0:	89 44 24 dc          	mov    %eax,-0x24(%rsp)
  4012f4:	8b 44 24 e0          	mov    -0x20(%rsp),%eax
  4012f8:	69 c0 82 1f 00 00    	imul   $0x1f82,%eax,%eax
  4012fe:	89 44 24 e0          	mov    %eax,-0x20(%rsp)
  401302:	8b 44 24 d8          	mov    -0x28(%rsp),%eax
  401306:	69 c0 e2 3c 00 00    	imul   $0x3ce2,%eax,%eax
  40130c:	89 44 24 d8          	mov    %eax,-0x28(%rsp)
  401310:	8b 44 24 f0          	mov    -0x10(%rsp),%eax
  401314:	69 c0 11 42 00 00    	imul   $0x4211,%eax,%eax
  40131a:	89 44 24 f0          	mov    %eax,-0x10(%rsp)
  40131e:	8b 44 24 d4          	mov    -0x2c(%rsp),%eax
  401322:	69 c0 3a ef 00 00    	imul   $0xef3a,%eax,%eax
  401328:	89 44 24 d4          	mov    %eax,-0x2c(%rsp)
  40132c:	8b 44 24 f4          	mov    -0xc(%rsp),%eax
  401330:	69 c0 7f f7 00 00    	imul   $0xf77f,%eax,%eax
  401336:	89 44 24 f4          	mov    %eax,-0xc(%rsp)
  40133a:	8b 44 24 f4          	mov    -0xc(%rsp),%eax
  40133e:	69 c0 9d 13 00 00    	imul   $0x139d,%eax,%eax
  401344:	89 44 24 f4          	mov    %eax,-0xc(%rsp)
  401348:	8b 44 24 e8          	mov    -0x18(%rsp),%eax
  40134c:	69 c0 f2 26 00 00    	imul   $0x26f2,%eax,%eax
  401352:	89 44 24 e8          	mov    %eax,-0x18(%rsp)
  401356:	8b 44 24 ec          	mov    -0x14(%rsp),%eax
  40135a:	69 c0 9e 3f 00 00    	imul   $0x3f9e,%eax,%eax
  401360:	89 44 24 ec          	mov    %eax,-0x14(%rsp)
  401364:	8b 44 24 d0          	mov    -0x30(%rsp),%eax
  401368:	69 c0 45 20 00 00    	imul   $0x2045,%eax,%eax
  40136e:	89 44 24 d0          	mov    %eax,-0x30(%rsp)
  401372:	8b 44 24 dc          	mov    -0x24(%rsp),%eax
  401376:	69 c0 a3 c8 00 00    	imul   $0xc8a3,%eax,%eax
  40137c:	89 44 24 dc          	mov    %eax,-0x24(%rsp)
  401380:	8b 44 24 ec          	mov    -0x14(%rsp),%eax
  401384:	69 c0 75 a3 00 00    	imul   $0xa375,%eax,%eax
  40138a:	89 44 24 ec          	mov    %eax,-0x14(%rsp)
  40138e:	8b 44 24 d4          	mov    -0x2c(%rsp),%eax
  401392:	69 c0 87 c2 00 00    	imul   $0xc287,%eax,%eax
  401398:	89 44 24 d4          	mov    %eax,-0x2c(%rsp)
  40139c:	8b 44 24 dc          	mov    -0x24(%rsp),%eax
  4013a0:	69 c0 ce 93 00 00    	imul   $0x93ce,%eax,%eax
  4013a6:	89 44 24 dc          	mov    %eax,-0x24(%rsp)
  4013aa:	8b 44 24 d0          	mov    -0x30(%rsp),%eax
  4013ae:	69 c0 e8 41 00 00    	imul   $0x41e8,%eax,%eax
  4013b4:	89 44 24 d0          	mov    %eax,-0x30(%rsp)
  4013b8:	8b 44 24 d8          	mov    -0x28(%rsp),%eax
  4013bc:	69 c0 73 c0 00 00    	imul   $0xc073,%eax,%eax
  4013c2:	89 44 24 d8          	mov    %eax,-0x28(%rsp)
  4013c6:	8b 44 24 dc          	mov    -0x24(%rsp),%eax
  4013ca:	69 c0 1f 44 00 00    	imul   $0x441f,%eax,%eax
  4013d0:	89 44 24 dc          	mov    %eax,-0x24(%rsp)
  4013d4:	8b 44 24 ec          	mov    -0x14(%rsp),%eax
  4013d8:	69 c0 ae 19 00 00    	imul   $0x19ae,%eax,%eax
  4013de:	89 44 24 ec          	mov    %eax,-0x14(%rsp)
  4013e2:	8b 44 24 e8          	mov    -0x18(%rsp),%eax
  4013e6:	69 c0 19 30 00 00    	imul   $0x3019,%eax,%eax
  4013ec:	89 44 24 e8          	mov    %eax,-0x18(%rsp)
  4013f0:	8b 44 24 f4          	mov    -0xc(%rsp),%eax
  4013f4:	69 c0 9e 47 00 00    	imul   $0x479e,%eax,%eax
  4013fa:	89 44 24 f4          	mov    %eax,-0xc(%rsp)
  4013fe:	8b 44 24 ec          	mov    -0x14(%rsp),%eax
  401402:	69 c0 6b a7 00 00    	imul   $0xa76b,%eax,%eax
  401408:	89 44 24 ec          	mov    %eax,-0x14(%rsp)
  40140c:	8b 44 24 d0          	mov    -0x30(%rsp),%eax
  401410:	69 c0 4f d9 00 00    	imul   $0xd94f,%eax,%eax
  401416:	89 44 24 d0          	mov    %eax,-0x30(%rsp)
  40141a:	8b 44 24 e4          	mov    -0x1c(%rsp),%eax
  40141e:	69 c0 8a 83 00 00    	imul   $0x838a,%eax,%eax
  401424:	89 44 24 e4          	mov    %eax,-0x1c(%rsp)
  401428:	8b 44 24 e4          	mov    -0x1c(%rsp),%eax
  40142c:	69 c0 26 a6 00 00    	imul   $0xa626,%eax,%eax
  401432:	89 44 24 e4          	mov    %eax,-0x1c(%rsp)
  401436:	8b 44 24 f4          	mov    -0xc(%rsp),%eax
  40143a:	69 c0 fa 3f 00 00    	imul   $0x3ffa,%eax,%eax
  401440:	89 44 24 f4          	mov    %eax,-0xc(%rsp)
  401444:	8b 44 24 dc          	mov    -0x24(%rsp),%eax
  401448:	69 c0 15 37 00 00    	imul   $0x3715,%eax,%eax
  40144e:	89 44 24 dc          	mov    %eax,-0x24(%rsp)
  401452:	8b 44 24 e8          	mov    -0x18(%rsp),%eax
  401456:	69 c0 bb a0 00 00    	imul   $0xa0bb,%eax,%eax
  40145c:	89 44 24 e8          	mov    %eax,-0x18(%rsp)
  401460:	8b 44 24 f0          	mov    -0x10(%rsp),%eax
  401464:	69 c0 08 3b 00 00    	imul   $0x3b08,%eax,%eax
  40146a:	89 44 24 f0          	mov    %eax,-0x10(%rsp)
  40146e:	8b 44 24 dc          	mov    -0x24(%rsp),%eax
  401472:	69 c0 5e ae 00 00    	imul   $0xae5e,%eax,%eax
  401478:	89 44 24 dc          	mov    %eax,-0x24(%rsp)
  40147c:	8b 44 24 d8          	mov    -0x28(%rsp),%eax
  401480:	69 c0 33 5a 00 00    	imul   $0x5a33,%eax,%eax
  401486:	89 44 24 d8          	mov    %eax,-0x28(%rsp)
  40148a:	8b 44 24 d0          	mov    -0x30(%rsp),%eax
  40148e:	69 c0 bb 15 00 00    	imul   $0x15bb,%eax,%eax
  401494:	89 44 24 d0          	mov    %eax,-0x30(%rsp)
  401498:	8b 44 24 d8          	mov    -0x28(%rsp),%eax
  40149c:	69 c0 e7 02 00 00    	imul   $0x2e7,%eax,%eax
  4014a2:	89 44 24 d8          	mov    %eax,-0x28(%rsp)
  4014a6:	8b 44 24 e4          	mov    -0x1c(%rsp),%eax
  4014aa:	69 c0 9b fa 00 00    	imul   $0xfa9b,%eax,%eax
  4014b0:	89 44 24 e4          	mov    %eax,-0x1c(%rsp)
  4014b4:	8b 44 24 d0          	mov    -0x30(%rsp),%eax
  4014b8:	69 c0 dc da 00 00    	imul   $0xdadc,%eax,%eax
  4014be:	89 44 24 d0          	mov    %eax,-0x30(%rsp)
  4014c2:	8b 44 24 f0          	mov    -0x10(%rsp),%eax
  4014c6:	69 c0 55 78 00 00    	imul   $0x7855,%eax,%eax
  4014cc:	89 44 24 f0          	mov    %eax,-0x10(%rsp)
  4014d0:	8b 44 24 d8          	mov    -0x28(%rsp),%eax
  4014d4:	69 c0 08 4a 00 00    	imul   $0x4a08,%eax,%eax
  4014da:	89 44 24 d8          	mov    %eax,-0x28(%rsp)
  4014de:	8b 44 24 d4          	mov    -0x2c(%rsp),%eax
  4014e2:	69 c0 97 61 00 00    	imul   $0x6197,%eax,%eax
  4014e8:	89 44 24 d4          	mov    %eax,-0x2c(%rsp)
  4014ec:	8b 44 24 e4          	mov    -0x1c(%rsp),%eax
  4014f0:	69 c0 c8 da 00 00    	imul   $0xdac8,%eax,%eax
  4014f6:	89 44 24 e4          	mov    %eax,-0x1c(%rsp)
  4014fa:	8b 44 24 d4          	mov    -0x2c(%rsp),%eax
  4014fe:	69 c0 98 23 00 00    	imul   $0x2398,%eax,%eax
  401504:	89 44 24 d4          	mov    %eax,-0x2c(%rsp)
  401508:	8b 44 24 d8          	mov    -0x28(%rsp),%eax
  40150c:	69 c0 4a a8 00 00    	imul   $0xa84a,%eax,%eax
  401512:	89 44 24 d8          	mov    %eax,-0x28(%rsp)
  401516:	8b 44 24 d0          	mov    -0x30(%rsp),%eax
  40151a:	69 c0 5a 47 00 00    	imul   $0x475a,%eax,%eax
  401520:	89 44 24 d0          	mov    %eax,-0x30(%rsp)
  401524:	8b 44 24 ec          	mov    -0x14(%rsp),%eax
  401528:	69 c0 30 6c 00 00    	imul   $0x6c30,%eax,%eax
  40152e:	89 44 24 ec          	mov    %eax,-0x14(%rsp)
  401532:	8b 44 24 d0          	mov    -0x30(%rsp),%eax
  401536:	69 c0 ea b9 00 00    	imul   $0xb9ea,%eax,%eax
  40153c:	89 44 24 d0          	mov    %eax,-0x30(%rsp)
  401540:	8b 44 24 e8          	mov    -0x18(%rsp),%eax
  401544:	69 c0 57 4b 00 00    	imul   $0x4b57,%eax,%eax
  40154a:	89 44 24 e8          	mov    %eax,-0x18(%rsp)
  40154e:	8b 44 24 d0          	mov    -0x30(%rsp),%eax
  401552:	69 c0 0f 76 00 00    	imul   $0x760f,%eax,%eax
  401558:	89 44 24 d0          	mov    %eax,-0x30(%rsp)
  40155c:	8b 44 24 d0          	mov    -0x30(%rsp),%eax
  401560:	69 c0 8f 58 00 00    	imul   $0x588f,%eax,%eax
  401566:	89 44 24 d0          	mov    %eax,-0x30(%rsp)
  40156a:	8b 44 24 f0          	mov    -0x10(%rsp),%eax
  40156e:	69 c0 30 c0 00 00    	imul   $0xc030,%eax,%eax
  401574:	89 44 24 f0          	mov    %eax,-0x10(%rsp)
  401578:	8b 44 24 ec          	mov    -0x14(%rsp),%eax
  40157c:	69 c0 a5 e5 00 00    	imul   $0xe5a5,%eax,%eax
  401582:	89 44 24 ec          	mov    %eax,-0x14(%rsp)
  401586:	8b 44 24 dc          	mov    -0x24(%rsp),%eax
  40158a:	69 c0 0b 78 00 00    	imul   $0x780b,%eax,%eax
  401590:	89 44 24 dc          	mov    %eax,-0x24(%rsp)
  401594:	8b 44 24 f4          	mov    -0xc(%rsp),%eax
  401598:	69 c0 80 e5 00 00    	imul   $0xe580,%eax,%eax
  40159e:	89 44 24 f4          	mov    %eax,-0xc(%rsp)
  4015a2:	8b 44 24 d0          	mov    -0x30(%rsp),%eax
  4015a6:	69 c0 fb e2 00 00    	imul   $0xe2fb,%eax,%eax
  4015ac:	89 44 24 d0          	mov    %eax,-0x30(%rsp)
  4015b0:	8b 44 24 f0          	mov    -0x10(%rsp),%eax
  4015b4:	69 c0 21 10 00 00    	imul   $0x1021,%eax,%eax
  4015ba:	89 44 24 f0          	mov    %eax,-0x10(%rsp)
  4015be:	8b 44 24 e0          	mov    -0x20(%rsp),%eax
  4015c2:	69 c0 df 52 00 00    	imul   $0x52df,%eax,%eax
  4015c8:	89 44 24 e0          	mov    %eax,-0x20(%rsp)
  4015cc:	8b 44 24 d4          	mov    -0x2c(%rsp),%eax
  4015d0:	69 c0 b3 29 00 00    	imul   $0x29b3,%eax,%eax
  4015d6:	89 44 24 d4          	mov    %eax,-0x2c(%rsp)
  4015da:	8b 44 24 f0          	mov    -0x10(%rsp),%eax
  4015de:	69 c0 d9 6b 00 00    	imul   $0x6bd9,%eax,%eax
  4015e4:	89 44 24 f0          	mov    %eax,-0x10(%rsp)
  4015e8:	8b 44 24 f4          	mov    -0xc(%rsp),%eax
  4015ec:	69 c0 09 da 00 00    	imul   $0xda09,%eax,%eax
  4015f2:	89 44 24 f4          	mov    %eax,-0xc(%rsp)
  4015f6:	8b 44 24 dc          	mov    -0x24(%rsp),%eax
  4015fa:	69 c0 5e b1 00 00    	imul   $0xb15e,%eax,%eax
  401600:	89 44 24 dc          	mov    %eax,-0x24(%rsp)
  401604:	8b 44 24 f0          	mov    -0x10(%rsp),%eax
  401608:	69 c0 49 9b 00 00    	imul   $0x9b49,%eax,%eax
  40160e:	89 44 24 f0          	mov    %eax,-0x10(%rsp)
  401612:	8b 44 24 e8          	mov    -0x18(%rsp),%eax
  401616:	69 c0 72 ed 00 00    	imul   $0xed72,%eax,%eax
  40161c:	89 44 24 e8          	mov    %eax,-0x18(%rsp)
  401620:	8b 44 24 f4          	mov    -0xc(%rsp),%eax
  401624:	69 c0 91 d3 00 00    	imul   $0xd391,%eax,%eax
  40162a:	89 44 24 f4          	mov    %eax,-0xc(%rsp)
  40162e:	8b 44 24 d0          	mov    -0x30(%rsp),%eax
  401632:	69 c0 2b 8c 00 00    	imul   $0x8c2b,%eax,%eax
  401638:	89 44 24 d0          	mov    %eax,-0x30(%rsp)
  40163c:	8b 44 24 d4          	mov    -0x2c(%rsp),%eax
  401640:	69 c0 4c ef 00 00    	imul   $0xef4c,%eax,%eax
  401646:	89 44 24 d4          	mov    %eax,-0x2c(%rsp)
  40164a:	8b 44 24 e4          	mov    -0x1c(%rsp),%eax
  40164e:	69 c0 96 87 00 00    	imul   $0x8796,%eax,%eax
  401654:	89 44 24 e4          	mov    %eax,-0x1c(%rsp)
  401658:	8b 44 24 e4          	mov    -0x1c(%rsp),%eax
  40165c:	69 c0 27 07 00 00    	imul   $0x727,%eax,%eax
  401662:	89 44 24 e4          	mov    %eax,-0x1c(%rsp)
  401666:	8b 44 24 f4          	mov    -0xc(%rsp),%eax
  40166a:	69 c0 72 95 00 00    	imul   $0x9572,%eax,%eax
  401670:	89 44 24 f4          	mov    %eax,-0xc(%rsp)
  401674:	8b 44 24 d4          	mov    -0x2c(%rsp),%eax
  401678:	69 c0 02 f0 00 00    	imul   $0xf002,%eax,%eax
  40167e:	89 44 24 d4          	mov    %eax,-0x2c(%rsp)
  401682:	8b 44 24 e8          	mov    -0x18(%rsp),%eax
  401686:	69 c0 2f 1c 00 00    	imul   $0x1c2f,%eax,%eax
  40168c:	89 44 24 e8          	mov    %eax,-0x18(%rsp)
  401690:	8b 44 24 e0          	mov    -0x20(%rsp),%eax
  401694:	69 c0 ff bc 00 00    	imul   $0xbcff,%eax,%eax
  40169a:	89 44 24 e0          	mov    %eax,-0x20(%rsp)
  40169e:	8b 44 24 f0          	mov    -0x10(%rsp),%eax
  4016a2:	69 c0 0e eb 00 00    	imul   $0xeb0e,%eax,%eax
  4016a8:	89 44 24 f0          	mov    %eax,-0x10(%rsp)
  4016ac:	8b 44 24 f4          	mov    -0xc(%rsp),%eax
  4016b0:	69 c0 85 e5 00 00    	imul   $0xe585,%eax,%eax
  4016b6:	89 44 24 f4          	mov    %eax,-0xc(%rsp)
  4016ba:	8b 44 24 d8          	mov    -0x28(%rsp),%eax
  4016be:	69 c0 b0 b8 00 00    	imul   $0xb8b0,%eax,%eax
  4016c4:	89 44 24 d8          	mov    %eax,-0x28(%rsp)
  4016c8:	8b 44 24 f0          	mov    -0x10(%rsp),%eax
  4016cc:	69 c0 1a 0a 00 00    	imul   $0xa1a,%eax,%eax
  4016d2:	89 44 24 f0          	mov    %eax,-0x10(%rsp)
  4016d6:	8b 44 24 f4          	mov    -0xc(%rsp),%eax
  4016da:	69 c0 c8 05 00 00    	imul   $0x5c8,%eax,%eax
  4016e0:	89 44 24 f4          	mov    %eax,-0xc(%rsp)
  4016e4:	8b 44 24 d8          	mov    -0x28(%rsp),%eax
  4016e8:	69 c0 57 d5 00 00    	imul   $0xd557,%eax,%eax
  4016ee:	89 44 24 d8          	mov    %eax,-0x28(%rsp)
  4016f2:	8b 44 24 e8          	mov    -0x18(%rsp),%eax
  4016f6:	69 c0 04 8c 00 00    	imul   $0x8c04,%eax,%eax
  4016fc:	89 44 24 e8          	mov    %eax,-0x18(%rsp)
  401700:	8b 44 24 e4          	mov    -0x1c(%rsp),%eax
  401704:	69 c0 bb 56 00 00    	imul   $0x56bb,%eax,%eax
  40170a:	89 44 24 e4          	mov    %eax,-0x1c(%rsp)
  40170e:	8b 44 24 dc          	mov    -0x24(%rsp),%eax
  401712:	69 c0 08 d5 00 00    	imul   $0xd508,%eax,%eax
  401718:	89 44 24 dc          	mov    %eax,-0x24(%rsp)
  40171c:	8b 44 24 f0          	mov    -0x10(%rsp),%eax
  401720:	69 c0 8a 64 00 00    	imul   $0x648a,%eax,%eax
  401726:	89 44 24 f0          	mov    %eax,-0x10(%rsp)
  40172a:	ba 00 00 00 00       	mov    $0x0,%edx
  40172f:	b8 00 00 00 00       	mov    $0x0,%eax
  401734:	eb 0b                	jmp    401741 <scramble+0x4be>
  401736:	89 d1                	mov    %edx,%ecx
  401738:	8b 4c 8c d0          	mov    -0x30(%rsp,%rcx,4),%ecx
  40173c:	01 c8                	add    %ecx,%eax
  40173e:	83 c2 01             	add    $0x1,%edx
  401741:	83 fa 09             	cmp    $0x9,%edx
  401744:	76 f0                	jbe    401736 <scramble+0x4b3>
  401746:	f3 c3                	repz retq 

0000000000401748 <getbuf>:
  401748:	48 83 ec 28          	sub    $0x28,%rsp
  40174c:	48 89 e7             	mov    %rsp,%rdi
  40174f:	e8 56 03 00 00       	callq  401aaa <Gets>
  401754:	b8 01 00 00 00       	mov    $0x1,%eax
  401759:	48 83 c4 28          	add    $0x28,%rsp
  40175d:	c3                   	retq   

000000000040175e <touch1>:
  40175e:	48 83 ec 08          	sub    $0x8,%rsp
  401762:	c7 05 70 3d 20 00 01 	movl   $0x1,0x203d70(%rip)        # 6054dc <vlevel>
  401769:	00 00 00 
  40176c:	bf d3 30 40 00       	mov    $0x4030d3,%edi
  401771:	e8 ba f4 ff ff       	callq  400c30 <puts@plt>
  401776:	bf 01 00 00 00       	mov    $0x1,%edi
  40177b:	e8 19 05 00 00       	callq  401c99 <validate>
  401780:	bf 00 00 00 00       	mov    $0x0,%edi
  401785:	e8 36 f6 ff ff       	callq  400dc0 <exit@plt>

000000000040178a <touch2>:
  40178a:	48 83 ec 08          	sub    $0x8,%rsp
  40178e:	89 fe                	mov    %edi,%esi
  401790:	c7 05 42 3d 20 00 02 	movl   $0x2,0x203d42(%rip)        # 6054dc <vlevel>
  401797:	00 00 00 
  40179a:	3b 3d 44 3d 20 00    	cmp    0x203d44(%rip),%edi        # 6054e4 <cookie>
  4017a0:	75 1b                	jne    4017bd <touch2+0x33>
  4017a2:	bf f8 30 40 00       	mov    $0x4030f8,%edi
  4017a7:	b8 00 00 00 00       	mov    $0x0,%eax
  4017ac:	e8 af f4 ff ff       	callq  400c60 <printf@plt>
  4017b1:	bf 02 00 00 00       	mov    $0x2,%edi
  4017b6:	e8 de 04 00 00       	callq  401c99 <validate>
  4017bb:	eb 19                	jmp    4017d6 <touch2+0x4c>
  4017bd:	bf 20 31 40 00       	mov    $0x403120,%edi
  4017c2:	b8 00 00 00 00       	mov    $0x0,%eax
  4017c7:	e8 94 f4 ff ff       	callq  400c60 <printf@plt>
  4017cc:	bf 02 00 00 00       	mov    $0x2,%edi
  4017d1:	e8 75 05 00 00       	callq  401d4b <fail>
  4017d6:	bf 00 00 00 00       	mov    $0x0,%edi
  4017db:	e8 e0 f5 ff ff       	callq  400dc0 <exit@plt>

00000000004017e0 <hexmatch>:
  4017e0:	41 54                	push   %r12
  4017e2:	55                   	push   %rbp
  4017e3:	53                   	push   %rbx
  4017e4:	48 83 ec 70          	sub    $0x70,%rsp
  4017e8:	41 89 fc             	mov    %edi,%r12d
  4017eb:	48 89 f5             	mov    %rsi,%rbp
  4017ee:	e8 2d f5 ff ff       	callq  400d20 <random@plt>
  4017f3:	48 89 c1             	mov    %rax,%rcx
  4017f6:	48 ba 0b d7 a3 70 3d 	movabs $0xa3d70a3d70a3d70b,%rdx
  4017fd:	0a d7 a3 
  401800:	48 f7 ea             	imul   %rdx
  401803:	48 8d 04 0a          	lea    (%rdx,%rcx,1),%rax
  401807:	48 c1 f8 06          	sar    $0x6,%rax
  40180b:	48 89 ce             	mov    %rcx,%rsi
  40180e:	48 c1 fe 3f          	sar    $0x3f,%rsi
  401812:	48 29 f0             	sub    %rsi,%rax
  401815:	48 8d 04 80          	lea    (%rax,%rax,4),%rax
  401819:	48 8d 04 80          	lea    (%rax,%rax,4),%rax
  40181d:	48 c1 e0 02          	shl    $0x2,%rax
  401821:	48 29 c1             	sub    %rax,%rcx
  401824:	48 8d 1c 0c          	lea    (%rsp,%rcx,1),%rbx
  401828:	44 89 e2             	mov    %r12d,%edx
  40182b:	be f0 30 40 00       	mov    $0x4030f0,%esi
  401830:	48 89 df             	mov    %rbx,%rdi
  401833:	b8 00 00 00 00       	mov    $0x0,%eax
  401838:	e8 73 f5 ff ff       	callq  400db0 <sprintf@plt>
  40183d:	ba 09 00 00 00       	mov    $0x9,%edx
  401842:	48 89 de             	mov    %rbx,%rsi
  401845:	48 89 ef             	mov    %rbp,%rdi
  401848:	e8 c3 f3 ff ff       	callq  400c10 <strncmp@plt>
  40184d:	85 c0                	test   %eax,%eax
  40184f:	0f 94 c0             	sete   %al
  401852:	0f b6 c0             	movzbl %al,%eax
  401855:	48 83 c4 70          	add    $0x70,%rsp
  401859:	5b                   	pop    %rbx
  40185a:	5d                   	pop    %rbp
  40185b:	41 5c                	pop    %r12
  40185d:	c3                   	retq   

000000000040185e <touch3>:
  40185e:	53                   	push   %rbx
  40185f:	48 89 fb             	mov    %rdi,%rbx
  401862:	c7 05 70 3c 20 00 03 	movl   $0x3,0x203c70(%rip)        # 6054dc <vlevel>
  401869:	00 00 00 
  40186c:	48 89 fe             	mov    %rdi,%rsi
  40186f:	8b 3d 6f 3c 20 00    	mov    0x203c6f(%rip),%edi        # 6054e4 <cookie>
  401875:	e8 66 ff ff ff       	callq  4017e0 <hexmatch>
  40187a:	85 c0                	test   %eax,%eax
  40187c:	74 1e                	je     40189c <touch3+0x3e>
  40187e:	48 89 de             	mov    %rbx,%rsi
  401881:	bf 48 31 40 00       	mov    $0x403148,%edi
  401886:	b8 00 00 00 00       	mov    $0x0,%eax
  40188b:	e8 d0 f3 ff ff       	callq  400c60 <printf@plt>
  401890:	bf 03 00 00 00       	mov    $0x3,%edi
  401895:	e8 ff 03 00 00       	callq  401c99 <validate>
  40189a:	eb 1c                	jmp    4018b8 <touch3+0x5a>
  40189c:	48 89 de             	mov    %rbx,%rsi
  40189f:	bf 70 31 40 00       	mov    $0x403170,%edi
  4018a4:	b8 00 00 00 00       	mov    $0x0,%eax
  4018a9:	e8 b2 f3 ff ff       	callq  400c60 <printf@plt>
  4018ae:	bf 03 00 00 00       	mov    $0x3,%edi
  4018b3:	e8 93 04 00 00       	callq  401d4b <fail>
  4018b8:	bf 00 00 00 00       	mov    $0x0,%edi
  4018bd:	e8 fe f4 ff ff       	callq  400dc0 <exit@plt>

00000000004018c2 <test>:
  4018c2:	48 83 ec 08          	sub    $0x8,%rsp
  4018c6:	b8 00 00 00 00       	mov    $0x0,%eax
  4018cb:	e8 78 fe ff ff       	callq  401748 <getbuf>
  4018d0:	89 c6                	mov    %eax,%esi
  4018d2:	bf 98 31 40 00       	mov    $0x403198,%edi
  4018d7:	b8 00 00 00 00       	mov    $0x0,%eax
  4018dc:	e8 7f f3 ff ff       	callq  400c60 <printf@plt>
  4018e1:	48 83 c4 08          	add    $0x8,%rsp
  4018e5:	c3                   	retq   

00000000004018e6 <start_farm>:								//touch3: 401893
  4018e6:	b8 01 00 00 00       	mov    $0x1,%eax
  4018eb:	c3                   	retq   

00000000004018ec <getval_478>:
  4018ec:	b8 58 91 c3 46       	mov    $0x46c39158,%eax
  4018f1:	c3                   	retq   

00000000004018f2 <addval_333>:
  4018f2:	8d 87 fa 3f d6 78    	lea    0x78d63ffa(%rdi),%eax
  4018f8:	c3                   	retq   

00000000004018f9 <getval_131>:
  4018f9:	b8 48 89 c7 c3       	mov    $0xc3c78948,%eax			//movq rax, edi
  4018fe:	c3                   	retq   					//movq rax, rdi
												//Address: 4018fa
00000000004018ff <setval_327>:
  4018ff:	c7 07 48 89 c7 90    	movl   $0x90c78948,(%rdi)			//89 c7
  401905:	c3                   	retq   

0000000000401906 <getval_144>:								//pop rax
  401906:	b8 fe 58 90 90       	mov    $0x909058fe,%eax			//58 choice 1
  40190b:	c3                   	retq   					//Address: 401908

000000000040190c <getval_230>:
  40190c:	b8 40 89 c7 c3       	mov    $0xc3c78940,%eax
  401911:	c3                   	retq   

0000000000401912 <addval_112>:
  401912:	8d 87 48 89 c7 c2    	lea    -0x3d3876b8(%rdi),%eax
  401918:	c3                   	retq   

0000000000401919 <getval_429>:
  401919:	b8 58 90 c3 b9       	mov    $0xb9c39058,%eax			//58
  40191e:	c3                   	retq   

000000000040191f <mid_farm>:
  40191f:	b8 01 00 00 00       	mov    $0x1,%eax
  401924:	c3                   	retq   

0000000000401925 <add_xy>:									//add xy
  401925:	48 8d 04 37          	lea    (%rdi,%rsi,1),%rax
  401929:	c3                   	retq   

000000000040192a <getval_296>:
  40192a:	b8 89 c2 c7 45       	mov    $0x45c7c289,%eax			//89 c2 one eax, edx
  40192f:	c3                   	retq   					//Address: 40192b

0000000000401930 <setval_329>:								//89 e0
  401930:	c7 07 48 89 e0 90    	movl   $0x90e08948,(%rdi)			//movq rsp, rax
  401936:	c3                   	retq   					//Address: 401932

0000000000401937 <getval_199>:
  401937:	b8 89 ce a4 c0       	mov    $0xc0a4ce89,%eax			//89 ce ecx, esi
  40193c:	c3                   	retq   					//Address: 401938

000000000040193d <addval_177>:
  40193d:	8d 87 89 c2 78 d2    	lea    -0x2d873d77(%rdi),%eax		//89 c2
  401943:	c3                   	retq   

0000000000401944 <getval_379>:
  401944:	b8 48 88 e0 c3       	mov    $0xc3e08848,%eax
  401949:	c3                   	retq   

000000000040194a <setval_453>:
  40194a:	c7 07 15 89 d1 94    	movl   $0x94d18915,(%rdi)			//89 d1 two edx, ecx
  401950:	c3                   	retq   					//Address: 40194d

0000000000401951 <getval_213>:
  401951:	b8 89 ce 20 d2       	mov    $0xd220ce89,%eax			//89 ce three
  401956:	c3                   	retq   					//Address: 401952

0000000000401957 <getval_175>:
  401957:	b8 8d ce 84 db       	mov    $0xdb84ce8d,%eax
  40195c:	c3                   	retq   

000000000040195d <setval_212>:
  40195d:	c7 07 89 d1 00 c0    	movl   $0xc000d189,(%rdi)
  401963:	c3                   	retq   

0000000000401964 <getval_393>:
  401964:	b8 89 d1 94 d2       	mov    $0xd294d189,%eax
  401969:	c3                   	retq   

000000000040196a <getval_148>:
  40196a:	b8 89 c2 28 c0       	mov    $0xc028c289,%eax
  40196f:	c3                   	retq   

0000000000401970 <setval_232>:
  401970:	c7 07 48 a9 e0 c3    	movl   $0xc3e0a948,(%rdi)
  401976:	c3                   	retq   

0000000000401977 <addval_497>:
  401977:	8d 87 47 48 89 e0    	lea    -0x1f76b7b9(%rdi),%eax		//89 e0
  40197d:	c3                   	retq   

000000000040197e <addval_143>:
  40197e:	8d 87 89 ce 90 c7    	lea    -0x386f3177(%rdi),%eax
  401984:	c3                   	retq   

0000000000401985 <addval_305>:
  401985:	8d 87 89 d1 28 db    	lea    -0x24d72e77(%rdi),%eax
  40198b:	c3                   	retq   

000000000040198c <setval_336>:
  40198c:	c7 07 89 ce c4 c9    	movl   $0xc9c4ce89,(%rdi)
  401992:	c3                   	retq   

0000000000401993 <addval_202>:
  401993:	8d 87 89 c2 84 c0    	lea    -0x3f7b3d77(%rdi),%eax
  401999:	c3                   	retq   

000000000040199a <getval_456>:
  40199a:	b8 48 89 e0 c7       	mov    $0xc7e08948,%eax
  40199f:	c3                   	retq   

00000000004019a0 <setval_413>:
  4019a0:	c7 07 89 ce 38 c0    	movl   $0xc038ce89,(%rdi)
  4019a6:	c3                   	retq   

00000000004019a7 <setval_275>:
  4019a7:	c7 07 89 d1 38 db    	movl   $0xdb38d189,(%rdi)
  4019ad:	c3                   	retq   

00000000004019ae <setval_154>:
  4019ae:	c7 07 89 c2 c4 c0    	movl   $0xc0c4c289,(%rdi)
  4019b4:	c3                   	retq   

00000000004019b5 <addval_284>:
  4019b5:	8d 87 89 ce 60 c9    	lea    -0x369f3177(%rdi),%eax
  4019bb:	c3                   	retq   

00000000004019bc <addval_472>:
  4019bc:	8d 87 89 c2 92 90    	lea    -0x6f6d3d77(%rdi),%eax
  4019c2:	c3                   	retq   

00000000004019c3 <getval_494>:
  4019c3:	b8 89 ce 78 c9       	mov    $0xc978ce89,%eax
  4019c8:	c3                   	retq   

00000000004019c9 <setval_335>:
  4019c9:	c7 07 48 89 e0 94    	movl   $0x94e08948,(%rdi)
  4019cf:	c3                   	retq   

00000000004019d0 <setval_389>:
  4019d0:	c7 07 89 c2 60 db    	movl   $0xdb60c289,(%rdi)
  4019d6:	c3                   	retq   

00000000004019d7 <setval_399>:
  4019d7:	c7 07 68 89 e0 90    	movl   $0x90e08968,(%rdi)
  4019dd:	c3                   	retq   

00000000004019de <setval_243>:
  4019de:	c7 07 71 89 c2 90    	movl   $0x90c28971,(%rdi)
  4019e4:	c3                   	retq   

00000000004019e5 <addval_208>:
  4019e5:	8d 87 01 89 d1 c1    	lea    -0x3e2e76ff(%rdi),%eax
  4019eb:	c3                   	retq   

00000000004019ec <addval_499>:
  4019ec:	8d 87 89 d1 48 db    	lea    -0x24b72e77(%rdi),%eax
  4019f2:	c3                   	retq   

00000000004019f3 <setval_130>:
  4019f3:	c7 07 89 d1 20 c9    	movl   $0xc920d189,(%rdi)
  4019f9:	c3                   	retq   

00000000004019fa <getval_318>:
  4019fa:	b8 48 89 e0 c7       	mov    $0xc7e08948,%eax
  4019ff:	c3                   	retq   

0000000000401a00 <end_farm>:
  401a00:	b8 01 00 00 00       	mov    $0x1,%eax
  401a05:	c3                   	retq   
  401a06:	66 2e 0f 1f 84 00 00 	nopw   %cs:0x0(%rax,%rax,1)
  401a0d:	00 00 00 

0000000000401a10 <save_char>:
  401a10:	8b 05 ee 46 20 00    	mov    0x2046ee(%rip),%eax        # 606104 <gets_cnt>
  401a16:	3d ff 03 00 00       	cmp    $0x3ff,%eax
  401a1b:	7f 49                	jg     401a66 <save_char+0x56>
  401a1d:	8d 14 40             	lea    (%rax,%rax,2),%edx
  401a20:	89 f9                	mov    %edi,%ecx
  401a22:	c0 e9 04             	shr    $0x4,%cl
  401a25:	83 e1 0f             	and    $0xf,%ecx
  401a28:	0f b6 b1 c0 34 40 00 	movzbl 0x4034c0(%rcx),%esi
  401a2f:	48 63 ca             	movslq %edx,%rcx
  401a32:	40 88 b1 00 55 60 00 	mov    %sil,0x605500(%rcx)
  401a39:	8d 4a 01             	lea    0x1(%rdx),%ecx
  401a3c:	83 e7 0f             	and    $0xf,%edi
  401a3f:	0f b6 b7 c0 34 40 00 	movzbl 0x4034c0(%rdi),%esi
  401a46:	48 63 c9             	movslq %ecx,%rcx
  401a49:	40 88 b1 00 55 60 00 	mov    %sil,0x605500(%rcx)
  401a50:	83 c2 02             	add    $0x2,%edx
  401a53:	48 63 d2             	movslq %edx,%rdx
  401a56:	c6 82 00 55 60 00 20 	movb   $0x20,0x605500(%rdx)
  401a5d:	83 c0 01             	add    $0x1,%eax
  401a60:	89 05 9e 46 20 00    	mov    %eax,0x20469e(%rip)        # 606104 <gets_cnt>
  401a66:	f3 c3                	repz retq 

0000000000401a68 <save_term>:
  401a68:	8b 05 96 46 20 00    	mov    0x204696(%rip),%eax        # 606104 <gets_cnt>
  401a6e:	8d 04 40             	lea    (%rax,%rax,2),%eax
  401a71:	48 98                	cltq   
  401a73:	c6 80 00 55 60 00 00 	movb   $0x0,0x605500(%rax)
  401a7a:	c3                   	retq   

0000000000401a7b <check_fail>:
  401a7b:	48 83 ec 08          	sub    $0x8,%rsp
  401a7f:	0f be 35 82 46 20 00 	movsbl 0x204682(%rip),%esi        # 606108 <target_prefix>
  401a86:	b9 00 55 60 00       	mov    $0x605500,%ecx
  401a8b:	8b 15 47 3a 20 00    	mov    0x203a47(%rip),%edx        # 6054d8 <check_level>
  401a91:	bf bb 31 40 00       	mov    $0x4031bb,%edi
  401a96:	b8 00 00 00 00       	mov    $0x0,%eax
  401a9b:	e8 c0 f1 ff ff       	callq  400c60 <printf@plt>
  401aa0:	bf 01 00 00 00       	mov    $0x1,%edi
  401aa5:	e8 16 f3 ff ff       	callq  400dc0 <exit@plt>

0000000000401aaa <Gets>:
  401aaa:	41 54                	push   %r12
  401aac:	55                   	push   %rbp
  401aad:	53                   	push   %rbx
  401aae:	49 89 fc             	mov    %rdi,%r12
  401ab1:	c7 05 49 46 20 00 00 	movl   $0x0,0x204649(%rip)        # 606104 <gets_cnt>
  401ab8:	00 00 00 
  401abb:	48 89 fb             	mov    %rdi,%rbx
  401abe:	eb 11                	jmp    401ad1 <Gets+0x27>
  401ac0:	48 8d 6b 01          	lea    0x1(%rbx),%rbp
  401ac4:	88 03                	mov    %al,(%rbx)
  401ac6:	0f b6 f8             	movzbl %al,%edi
  401ac9:	e8 42 ff ff ff       	callq  401a10 <save_char>
  401ace:	48 89 eb             	mov    %rbp,%rbx
  401ad1:	48 8b 3d f8 39 20 00 	mov    0x2039f8(%rip),%rdi        # 6054d0 <infile>
  401ad8:	e8 53 f2 ff ff       	callq  400d30 <_IO_getc@plt>
  401add:	83 f8 ff             	cmp    $0xffffffff,%eax
  401ae0:	74 05                	je     401ae7 <Gets+0x3d>
  401ae2:	83 f8 0a             	cmp    $0xa,%eax
  401ae5:	75 d9                	jne    401ac0 <Gets+0x16>
  401ae7:	c6 03 00             	movb   $0x0,(%rbx)
  401aea:	b8 00 00 00 00       	mov    $0x0,%eax
  401aef:	e8 74 ff ff ff       	callq  401a68 <save_term>
  401af4:	4c 89 e0             	mov    %r12,%rax
  401af7:	5b                   	pop    %rbx
  401af8:	5d                   	pop    %rbp
  401af9:	41 5c                	pop    %r12
  401afb:	c3                   	retq   

0000000000401afc <notify_server>:
  401afc:	83 3d e5 39 20 00 00 	cmpl   $0x0,0x2039e5(%rip)        # 6054e8 <is_checker>
  401b03:	0f 85 8e 01 00 00    	jne    401c97 <notify_server+0x19b>
  401b09:	53                   	push   %rbx
  401b0a:	48 81 ec 10 40 00 00 	sub    $0x4010,%rsp
  401b11:	89 fb                	mov    %edi,%ebx
  401b13:	8b 05 eb 45 20 00    	mov    0x2045eb(%rip),%eax        # 606104 <gets_cnt>
  401b19:	83 c0 64             	add    $0x64,%eax
  401b1c:	3d 00 20 00 00       	cmp    $0x2000,%eax
  401b21:	7e 19                	jle    401b3c <notify_server+0x40>
  401b23:	bf f0 32 40 00       	mov    $0x4032f0,%edi
  401b28:	b8 00 00 00 00       	mov    $0x0,%eax
  401b2d:	e8 2e f1 ff ff       	callq  400c60 <printf@plt>
  401b32:	bf 01 00 00 00       	mov    $0x1,%edi
  401b37:	e8 84 f2 ff ff       	callq  400dc0 <exit@plt>
  401b3c:	44 0f be 0d c4 45 20 	movsbl 0x2045c4(%rip),%r9d        # 606108 <target_prefix>
  401b43:	00 
  401b44:	83 3d 3d 39 20 00 00 	cmpl   $0x0,0x20393d(%rip)        # 605488 <notify>
  401b4b:	74 09                	je     401b56 <notify_server+0x5a>
  401b4d:	44 8b 05 8c 39 20 00 	mov    0x20398c(%rip),%r8d        # 6054e0 <authkey>
  401b54:	eb 06                	jmp    401b5c <notify_server+0x60>
  401b56:	41 b8 ff ff ff ff    	mov    $0xffffffff,%r8d
  401b5c:	85 db                	test   %ebx,%ebx
  401b5e:	74 07                	je     401b67 <notify_server+0x6b>
  401b60:	b9 d1 31 40 00       	mov    $0x4031d1,%ecx
  401b65:	eb 05                	jmp    401b6c <notify_server+0x70>
  401b67:	b9 d6 31 40 00       	mov    $0x4031d6,%ecx
  401b6c:	48 c7 44 24 08 00 55 	movq   $0x605500,0x8(%rsp)
  401b73:	60 00 
  401b75:	89 34 24             	mov    %esi,(%rsp)
  401b78:	8b 15 ca 35 20 00    	mov    0x2035ca(%rip),%edx        # 605148 <target_id>
  401b7e:	be db 31 40 00       	mov    $0x4031db,%esi
  401b83:	48 8d bc 24 10 20 00 	lea    0x2010(%rsp),%rdi
  401b8a:	00 
  401b8b:	b8 00 00 00 00       	mov    $0x0,%eax
  401b90:	e8 1b f2 ff ff       	callq  400db0 <sprintf@plt>
  401b95:	83 3d ec 38 20 00 00 	cmpl   $0x0,0x2038ec(%rip)        # 605488 <notify>
  401b9c:	74 78                	je     401c16 <notify_server+0x11a>
  401b9e:	85 db                	test   %ebx,%ebx
  401ba0:	74 68                	je     401c0a <notify_server+0x10e>
  401ba2:	4c 8d 4c 24 10       	lea    0x10(%rsp),%r9
  401ba7:	41 b8 00 00 00 00    	mov    $0x0,%r8d
  401bad:	48 8d 8c 24 10 20 00 	lea    0x2010(%rsp),%rcx
  401bb4:	00 
  401bb5:	48 8b 15 94 35 20 00 	mov    0x203594(%rip),%rdx        # 605150 <lab>
  401bbc:	48 8b 35 95 35 20 00 	mov    0x203595(%rip),%rsi        # 605158 <course>
  401bc3:	48 8b 3d 76 35 20 00 	mov    0x203576(%rip),%rdi        # 605140 <user_id>
  401bca:	e8 94 0f 00 00       	callq  402b63 <driver_post>
  401bcf:	85 c0                	test   %eax,%eax
  401bd1:	79 1e                	jns    401bf1 <notify_server+0xf5>
  401bd3:	48 8d 74 24 10       	lea    0x10(%rsp),%rsi
  401bd8:	bf f7 31 40 00       	mov    $0x4031f7,%edi
  401bdd:	b8 00 00 00 00       	mov    $0x0,%eax
  401be2:	e8 79 f0 ff ff       	callq  400c60 <printf@plt>
  401be7:	bf 01 00 00 00       	mov    $0x1,%edi
  401bec:	e8 cf f1 ff ff       	callq  400dc0 <exit@plt>
  401bf1:	bf 20 33 40 00       	mov    $0x403320,%edi
  401bf6:	e8 35 f0 ff ff       	callq  400c30 <puts@plt>
  401bfb:	bf 03 32 40 00       	mov    $0x403203,%edi
  401c00:	e8 2b f0 ff ff       	callq  400c30 <puts@plt>
  401c05:	e9 85 00 00 00       	jmpq   401c8f <notify_server+0x193>
  401c0a:	bf 0d 32 40 00       	mov    $0x40320d,%edi
  401c0f:	e8 1c f0 ff ff       	callq  400c30 <puts@plt>
  401c14:	eb 79                	jmp    401c8f <notify_server+0x193>
  401c16:	85 db                	test   %ebx,%ebx
  401c18:	74 08                	je     401c22 <notify_server+0x126>
  401c1a:	be d1 31 40 00       	mov    $0x4031d1,%esi
  401c1f:	90                   	nop
  401c20:	eb 05                	jmp    401c27 <notify_server+0x12b>
  401c22:	be d6 31 40 00       	mov    $0x4031d6,%esi
  401c27:	bf 58 33 40 00       	mov    $0x403358,%edi
  401c2c:	b8 00 00 00 00       	mov    $0x0,%eax
  401c31:	e8 2a f0 ff ff       	callq  400c60 <printf@plt>
  401c36:	48 8b 35 03 35 20 00 	mov    0x203503(%rip),%rsi        # 605140 <user_id>
  401c3d:	bf 14 32 40 00       	mov    $0x403214,%edi
  401c42:	b8 00 00 00 00       	mov    $0x0,%eax
  401c47:	e8 14 f0 ff ff       	callq  400c60 <printf@plt>
  401c4c:	48 8b 35 05 35 20 00 	mov    0x203505(%rip),%rsi        # 605158 <course>
  401c53:	bf 21 32 40 00       	mov    $0x403221,%edi
  401c58:	b8 00 00 00 00       	mov    $0x0,%eax
  401c5d:	e8 fe ef ff ff       	callq  400c60 <printf@plt>
  401c62:	48 8b 35 e7 34 20 00 	mov    0x2034e7(%rip),%rsi        # 605150 <lab>
  401c69:	bf 2d 32 40 00       	mov    $0x40322d,%edi
  401c6e:	b8 00 00 00 00       	mov    $0x0,%eax
  401c73:	e8 e8 ef ff ff       	callq  400c60 <printf@plt>
  401c78:	48 8d b4 24 10 20 00 	lea    0x2010(%rsp),%rsi
  401c7f:	00 
  401c80:	bf 36 32 40 00       	mov    $0x403236,%edi
  401c85:	b8 00 00 00 00       	mov    $0x0,%eax
  401c8a:	e8 d1 ef ff ff       	callq  400c60 <printf@plt>
  401c8f:	48 81 c4 10 40 00 00 	add    $0x4010,%rsp
  401c96:	5b                   	pop    %rbx
  401c97:	f3 c3                	repz retq 

0000000000401c99 <validate>:
  401c99:	53                   	push   %rbx
  401c9a:	89 fb                	mov    %edi,%ebx
  401c9c:	83 3d 45 38 20 00 00 	cmpl   $0x0,0x203845(%rip)        # 6054e8 <is_checker>
  401ca3:	74 60                	je     401d05 <validate+0x6c>
  401ca5:	39 3d 31 38 20 00    	cmp    %edi,0x203831(%rip)        # 6054dc <vlevel>
  401cab:	74 14                	je     401cc1 <validate+0x28>
  401cad:	bf 42 32 40 00       	mov    $0x403242,%edi
  401cb2:	e8 79 ef ff ff       	callq  400c30 <puts@plt>
  401cb7:	b8 00 00 00 00       	mov    $0x0,%eax
  401cbc:	e8 ba fd ff ff       	callq  401a7b <check_fail>
  401cc1:	8b 35 11 38 20 00    	mov    0x203811(%rip),%esi        # 6054d8 <check_level>
  401cc7:	39 fe                	cmp    %edi,%esi
  401cc9:	74 1b                	je     401ce6 <validate+0x4d>
  401ccb:	89 fa                	mov    %edi,%edx
  401ccd:	bf 80 33 40 00       	mov    $0x403380,%edi
  401cd2:	b8 00 00 00 00       	mov    $0x0,%eax
  401cd7:	e8 84 ef ff ff       	callq  400c60 <printf@plt>
  401cdc:	b8 00 00 00 00       	mov    $0x0,%eax
  401ce1:	e8 95 fd ff ff       	callq  401a7b <check_fail>
  401ce6:	0f be 35 1b 44 20 00 	movsbl 0x20441b(%rip),%esi        # 606108 <target_prefix>
  401ced:	b9 00 55 60 00       	mov    $0x605500,%ecx
  401cf2:	89 fa                	mov    %edi,%edx
  401cf4:	bf 60 32 40 00       	mov    $0x403260,%edi
  401cf9:	b8 00 00 00 00       	mov    $0x0,%eax
  401cfe:	e8 5d ef ff ff       	callq  400c60 <printf@plt>
  401d03:	eb 44                	jmp    401d49 <validate+0xb0>
  401d05:	39 3d d1 37 20 00    	cmp    %edi,0x2037d1(%rip)        # 6054dc <vlevel>
  401d0b:	74 18                	je     401d25 <validate+0x8c>
  401d0d:	bf 42 32 40 00       	mov    $0x403242,%edi
  401d12:	e8 19 ef ff ff       	callq  400c30 <puts@plt>
  401d17:	89 de                	mov    %ebx,%esi
  401d19:	bf 00 00 00 00       	mov    $0x0,%edi
  401d1e:	e8 d9 fd ff ff       	callq  401afc <notify_server>
  401d23:	eb 24                	jmp    401d49 <validate+0xb0>
  401d25:	0f be 15 dc 43 20 00 	movsbl 0x2043dc(%rip),%edx        # 606108 <target_prefix>
  401d2c:	89 fe                	mov    %edi,%esi
  401d2e:	bf a8 33 40 00       	mov    $0x4033a8,%edi
  401d33:	b8 00 00 00 00       	mov    $0x0,%eax
  401d38:	e8 23 ef ff ff       	callq  400c60 <printf@plt>
  401d3d:	89 de                	mov    %ebx,%esi
  401d3f:	bf 01 00 00 00       	mov    $0x1,%edi
  401d44:	e8 b3 fd ff ff       	callq  401afc <notify_server>
  401d49:	5b                   	pop    %rbx
  401d4a:	c3                   	retq   

0000000000401d4b <fail>:
  401d4b:	48 83 ec 08          	sub    $0x8,%rsp
  401d4f:	83 3d 92 37 20 00 00 	cmpl   $0x0,0x203792(%rip)        # 6054e8 <is_checker>
  401d56:	74 0a                	je     401d62 <fail+0x17>
  401d58:	b8 00 00 00 00       	mov    $0x0,%eax
  401d5d:	e8 19 fd ff ff       	callq  401a7b <check_fail>
  401d62:	89 fe                	mov    %edi,%esi
  401d64:	bf 00 00 00 00       	mov    $0x0,%edi
  401d69:	e8 8e fd ff ff       	callq  401afc <notify_server>
  401d6e:	48 83 c4 08          	add    $0x8,%rsp
  401d72:	c3                   	retq   

0000000000401d73 <bushandler>:
  401d73:	48 83 ec 08          	sub    $0x8,%rsp
  401d77:	83 3d 6a 37 20 00 00 	cmpl   $0x0,0x20376a(%rip)        # 6054e8 <is_checker>
  401d7e:	74 14                	je     401d94 <bushandler+0x21>
  401d80:	bf 75 32 40 00       	mov    $0x403275,%edi
  401d85:	e8 a6 ee ff ff       	callq  400c30 <puts@plt>
  401d8a:	b8 00 00 00 00       	mov    $0x0,%eax
  401d8f:	e8 e7 fc ff ff       	callq  401a7b <check_fail>
  401d94:	bf e0 33 40 00       	mov    $0x4033e0,%edi
  401d99:	e8 92 ee ff ff       	callq  400c30 <puts@plt>
  401d9e:	bf 7f 32 40 00       	mov    $0x40327f,%edi
  401da3:	e8 88 ee ff ff       	callq  400c30 <puts@plt>
  401da8:	be 00 00 00 00       	mov    $0x0,%esi
  401dad:	bf 00 00 00 00       	mov    $0x0,%edi
  401db2:	e8 45 fd ff ff       	callq  401afc <notify_server>
  401db7:	bf 01 00 00 00       	mov    $0x1,%edi
  401dbc:	e8 ff ef ff ff       	callq  400dc0 <exit@plt>

0000000000401dc1 <seghandler>:
  401dc1:	48 83 ec 08          	sub    $0x8,%rsp
  401dc5:	83 3d 1c 37 20 00 00 	cmpl   $0x0,0x20371c(%rip)        # 6054e8 <is_checker>
  401dcc:	74 14                	je     401de2 <seghandler+0x21>
  401dce:	bf 95 32 40 00       	mov    $0x403295,%edi
  401dd3:	e8 58 ee ff ff       	callq  400c30 <puts@plt>
  401dd8:	b8 00 00 00 00       	mov    $0x0,%eax
  401ddd:	e8 99 fc ff ff       	callq  401a7b <check_fail>
  401de2:	bf 00 34 40 00       	mov    $0x403400,%edi
  401de7:	e8 44 ee ff ff       	callq  400c30 <puts@plt>
  401dec:	bf 7f 32 40 00       	mov    $0x40327f,%edi
  401df1:	e8 3a ee ff ff       	callq  400c30 <puts@plt>
  401df6:	be 00 00 00 00       	mov    $0x0,%esi
  401dfb:	bf 00 00 00 00       	mov    $0x0,%edi
  401e00:	e8 f7 fc ff ff       	callq  401afc <notify_server>
  401e05:	bf 01 00 00 00       	mov    $0x1,%edi
  401e0a:	e8 b1 ef ff ff       	callq  400dc0 <exit@plt>

0000000000401e0f <illegalhandler>:
  401e0f:	48 83 ec 08          	sub    $0x8,%rsp
  401e13:	83 3d ce 36 20 00 00 	cmpl   $0x0,0x2036ce(%rip)        # 6054e8 <is_checker>
  401e1a:	74 14                	je     401e30 <illegalhandler+0x21>
  401e1c:	bf a8 32 40 00       	mov    $0x4032a8,%edi
  401e21:	e8 0a ee ff ff       	callq  400c30 <puts@plt>
  401e26:	b8 00 00 00 00       	mov    $0x0,%eax
  401e2b:	e8 4b fc ff ff       	callq  401a7b <check_fail>
  401e30:	bf 28 34 40 00       	mov    $0x403428,%edi
  401e35:	e8 f6 ed ff ff       	callq  400c30 <puts@plt>
  401e3a:	bf 7f 32 40 00       	mov    $0x40327f,%edi
  401e3f:	e8 ec ed ff ff       	callq  400c30 <puts@plt>
  401e44:	be 00 00 00 00       	mov    $0x0,%esi
  401e49:	bf 00 00 00 00       	mov    $0x0,%edi
  401e4e:	e8 a9 fc ff ff       	callq  401afc <notify_server>
  401e53:	bf 01 00 00 00       	mov    $0x1,%edi
  401e58:	e8 63 ef ff ff       	callq  400dc0 <exit@plt>

0000000000401e5d <sigalrmhandler>:
  401e5d:	48 83 ec 08          	sub    $0x8,%rsp
  401e61:	83 3d 80 36 20 00 00 	cmpl   $0x0,0x203680(%rip)        # 6054e8 <is_checker>
  401e68:	74 14                	je     401e7e <sigalrmhandler+0x21>
  401e6a:	bf bc 32 40 00       	mov    $0x4032bc,%edi
  401e6f:	e8 bc ed ff ff       	callq  400c30 <puts@plt>
  401e74:	b8 00 00 00 00       	mov    $0x0,%eax
  401e79:	e8 fd fb ff ff       	callq  401a7b <check_fail>
  401e7e:	be 05 00 00 00       	mov    $0x5,%esi
  401e83:	bf 58 34 40 00       	mov    $0x403458,%edi
  401e88:	b8 00 00 00 00       	mov    $0x0,%eax
  401e8d:	e8 ce ed ff ff       	callq  400c60 <printf@plt>
  401e92:	be 00 00 00 00       	mov    $0x0,%esi
  401e97:	bf 00 00 00 00       	mov    $0x0,%edi
  401e9c:	e8 5b fc ff ff       	callq  401afc <notify_server>
  401ea1:	bf 01 00 00 00       	mov    $0x1,%edi
  401ea6:	e8 15 ef ff ff       	callq  400dc0 <exit@plt>

0000000000401eab <launch>:
  401eab:	55                   	push   %rbp
  401eac:	48 89 e5             	mov    %rsp,%rbp
  401eaf:	48 89 fa             	mov    %rdi,%rdx
  401eb2:	48 8d 47 1e          	lea    0x1e(%rdi),%rax
  401eb6:	48 83 e0 f0          	and    $0xfffffffffffffff0,%rax
  401eba:	48 29 c4             	sub    %rax,%rsp
  401ebd:	48 8d 7c 24 0f       	lea    0xf(%rsp),%rdi
  401ec2:	48 83 e7 f0          	and    $0xfffffffffffffff0,%rdi
  401ec6:	be f4 00 00 00       	mov    $0xf4,%esi
  401ecb:	e8 a0 ed ff ff       	callq  400c70 <memset@plt>
  401ed0:	48 8b 05 c9 35 20 00 	mov    0x2035c9(%rip),%rax        # 6054a0 <stdin@@GLIBC_2.2.5>
  401ed7:	48 39 05 f2 35 20 00 	cmp    %rax,0x2035f2(%rip)        # 6054d0 <infile>
  401ede:	75 0f                	jne    401eef <launch+0x44>
  401ee0:	bf c4 32 40 00       	mov    $0x4032c4,%edi
  401ee5:	b8 00 00 00 00       	mov    $0x0,%eax
  401eea:	e8 71 ed ff ff       	callq  400c60 <printf@plt>
  401eef:	c7 05 e3 35 20 00 00 	movl   $0x0,0x2035e3(%rip)        # 6054dc <vlevel>
  401ef6:	00 00 00 
  401ef9:	b8 00 00 00 00       	mov    $0x0,%eax
  401efe:	e8 bf f9 ff ff       	callq  4018c2 <test>
  401f03:	83 3d de 35 20 00 00 	cmpl   $0x0,0x2035de(%rip)        # 6054e8 <is_checker>
  401f0a:	74 14                	je     401f20 <launch+0x75>
  401f0c:	bf d1 32 40 00       	mov    $0x4032d1,%edi
  401f11:	e8 1a ed ff ff       	callq  400c30 <puts@plt>
  401f16:	b8 00 00 00 00       	mov    $0x0,%eax
  401f1b:	e8 5b fb ff ff       	callq  401a7b <check_fail>
  401f20:	bf dc 32 40 00       	mov    $0x4032dc,%edi
  401f25:	e8 06 ed ff ff       	callq  400c30 <puts@plt>
  401f2a:	c9                   	leaveq 
  401f2b:	c3                   	retq   

0000000000401f2c <stable_launch>:
  401f2c:	53                   	push   %rbx
  401f2d:	48 89 3d 94 35 20 00 	mov    %rdi,0x203594(%rip)        # 6054c8 <global_offset>
  401f34:	41 b9 00 00 00 00    	mov    $0x0,%r9d
  401f3a:	41 b8 00 00 00 00    	mov    $0x0,%r8d
  401f40:	b9 32 01 00 00       	mov    $0x132,%ecx
  401f45:	ba 07 00 00 00       	mov    $0x7,%edx
  401f4a:	be 00 00 10 00       	mov    $0x100000,%esi
  401f4f:	bf 00 60 58 55       	mov    $0x55586000,%edi
  401f54:	e8 f7 ec ff ff       	callq  400c50 <mmap@plt>
  401f59:	48 89 c3             	mov    %rax,%rbx
  401f5c:	48 3d 00 60 58 55    	cmp    $0x55586000,%rax
  401f62:	74 32                	je     401f96 <stable_launch+0x6a>
  401f64:	be 00 00 10 00       	mov    $0x100000,%esi
  401f69:	48 89 c7             	mov    %rax,%rdi
  401f6c:	e8 df ed ff ff       	callq  400d50 <munmap@plt>
  401f71:	ba 00 60 58 55       	mov    $0x55586000,%edx
  401f76:	be 90 34 40 00       	mov    $0x403490,%esi
  401f7b:	48 8b 3d 2e 35 20 00 	mov    0x20352e(%rip),%rdi        # 6054b0 <stderr@@GLIBC_2.2.5>
  401f82:	b8 00 00 00 00       	mov    $0x0,%eax
  401f87:	e8 54 ed ff ff       	callq  400ce0 <fprintf@plt>
  401f8c:	bf 01 00 00 00       	mov    $0x1,%edi
  401f91:	e8 2a ee ff ff       	callq  400dc0 <exit@plt>
  401f96:	48 8d 90 f8 ff 0f 00 	lea    0xffff8(%rax),%rdx
  401f9d:	48 89 15 6c 41 20 00 	mov    %rdx,0x20416c(%rip)        # 606110 <stack_top>
  401fa4:	48 89 e0             	mov    %rsp,%rax
  401fa7:	48 89 d4             	mov    %rdx,%rsp
  401faa:	48 89 c2             	mov    %rax,%rdx
  401fad:	48 89 15 0c 35 20 00 	mov    %rdx,0x20350c(%rip)        # 6054c0 <global_save_stack>
  401fb4:	48 8b 3d 0d 35 20 00 	mov    0x20350d(%rip),%rdi        # 6054c8 <global_offset>
  401fbb:	e8 eb fe ff ff       	callq  401eab <launch>
  401fc0:	48 8b 05 f9 34 20 00 	mov    0x2034f9(%rip),%rax        # 6054c0 <global_save_stack>
  401fc7:	48 89 c4             	mov    %rax,%rsp
  401fca:	be 00 00 10 00       	mov    $0x100000,%esi
  401fcf:	48 89 df             	mov    %rbx,%rdi
  401fd2:	e8 79 ed ff ff       	callq  400d50 <munmap@plt>
  401fd7:	5b                   	pop    %rbx
  401fd8:	c3                   	retq   
  401fd9:	0f 1f 80 00 00 00 00 	nopl   0x0(%rax)

0000000000401fe0 <rio_readinitb>:
  401fe0:	89 37                	mov    %esi,(%rdi)
  401fe2:	c7 47 04 00 00 00 00 	movl   $0x0,0x4(%rdi)
  401fe9:	48 8d 47 10          	lea    0x10(%rdi),%rax
  401fed:	48 89 47 08          	mov    %rax,0x8(%rdi)
  401ff1:	c3                   	retq   

0000000000401ff2 <sigalrm_handler>:
  401ff2:	48 83 ec 08          	sub    $0x8,%rsp
  401ff6:	ba 00 00 00 00       	mov    $0x0,%edx
  401ffb:	be d0 34 40 00       	mov    $0x4034d0,%esi
  402000:	48 8b 3d a9 34 20 00 	mov    0x2034a9(%rip),%rdi        # 6054b0 <stderr@@GLIBC_2.2.5>
  402007:	b8 00 00 00 00       	mov    $0x0,%eax
  40200c:	e8 cf ec ff ff       	callq  400ce0 <fprintf@plt>
  402011:	bf 01 00 00 00       	mov    $0x1,%edi
  402016:	e8 a5 ed ff ff       	callq  400dc0 <exit@plt>

000000000040201b <urlencode>:
  40201b:	41 54                	push   %r12
  40201d:	55                   	push   %rbp
  40201e:	53                   	push   %rbx
  40201f:	48 83 ec 10          	sub    $0x10,%rsp
  402023:	48 89 fb             	mov    %rdi,%rbx
  402026:	48 89 f5             	mov    %rsi,%rbp
  402029:	b8 00 00 00 00       	mov    $0x0,%eax
  40202e:	48 c7 c1 ff ff ff ff 	mov    $0xffffffffffffffff,%rcx
  402035:	f2 ae                	repnz scas %es:(%rdi),%al
  402037:	48 f7 d1             	not    %rcx
  40203a:	8d 41 ff             	lea    -0x1(%rcx),%eax
  40203d:	e9 93 00 00 00       	jmpq   4020d5 <urlencode+0xba>
  402042:	0f b6 13             	movzbl (%rbx),%edx
  402045:	80 fa 2a             	cmp    $0x2a,%dl
  402048:	0f 94 c1             	sete   %cl
  40204b:	80 fa 2d             	cmp    $0x2d,%dl
  40204e:	0f 94 c0             	sete   %al
  402051:	08 c1                	or     %al,%cl
  402053:	75 1f                	jne    402074 <urlencode+0x59>
  402055:	80 fa 2e             	cmp    $0x2e,%dl
  402058:	74 1a                	je     402074 <urlencode+0x59>
  40205a:	80 fa 5f             	cmp    $0x5f,%dl
  40205d:	74 15                	je     402074 <urlencode+0x59>
  40205f:	8d 42 d0             	lea    -0x30(%rdx),%eax
  402062:	3c 09                	cmp    $0x9,%al
  402064:	76 0e                	jbe    402074 <urlencode+0x59>
  402066:	8d 42 bf             	lea    -0x41(%rdx),%eax
  402069:	3c 19                	cmp    $0x19,%al
  40206b:	76 07                	jbe    402074 <urlencode+0x59>
  40206d:	8d 42 9f             	lea    -0x61(%rdx),%eax
  402070:	3c 19                	cmp    $0x19,%al
  402072:	77 09                	ja     40207d <urlencode+0x62>
  402074:	88 55 00             	mov    %dl,0x0(%rbp)
  402077:	48 8d 6d 01          	lea    0x1(%rbp),%rbp
  40207b:	eb 51                	jmp    4020ce <urlencode+0xb3>
  40207d:	80 fa 20             	cmp    $0x20,%dl
  402080:	75 0a                	jne    40208c <urlencode+0x71>
  402082:	c6 45 00 2b          	movb   $0x2b,0x0(%rbp)
  402086:	48 8d 6d 01          	lea    0x1(%rbp),%rbp
  40208a:	eb 42                	jmp    4020ce <urlencode+0xb3>
  40208c:	8d 42 e0             	lea    -0x20(%rdx),%eax
  40208f:	3c 5f                	cmp    $0x5f,%al
  402091:	0f 96 c1             	setbe  %cl
  402094:	80 fa 09             	cmp    $0x9,%dl
  402097:	0f 94 c0             	sete   %al
  40209a:	08 c1                	or     %al,%cl
  40209c:	74 45                	je     4020e3 <urlencode+0xc8>
  40209e:	0f b6 d2             	movzbl %dl,%edx
  4020a1:	be 68 35 40 00       	mov    $0x403568,%esi
  4020a6:	48 89 e7             	mov    %rsp,%rdi
  4020a9:	b8 00 00 00 00       	mov    $0x0,%eax
  4020ae:	e8 fd ec ff ff       	callq  400db0 <sprintf@plt>
  4020b3:	0f b6 04 24          	movzbl (%rsp),%eax
  4020b7:	88 45 00             	mov    %al,0x0(%rbp)
  4020ba:	0f b6 44 24 01       	movzbl 0x1(%rsp),%eax
  4020bf:	88 45 01             	mov    %al,0x1(%rbp)
  4020c2:	0f b6 44 24 02       	movzbl 0x2(%rsp),%eax
  4020c7:	88 45 02             	mov    %al,0x2(%rbp)
  4020ca:	48 8d 6d 03          	lea    0x3(%rbp),%rbp
  4020ce:	48 83 c3 01          	add    $0x1,%rbx
  4020d2:	44 89 e0             	mov    %r12d,%eax
  4020d5:	44 8d 60 ff          	lea    -0x1(%rax),%r12d
  4020d9:	85 c0                	test   %eax,%eax
  4020db:	0f 85 61 ff ff ff    	jne    402042 <urlencode+0x27>
  4020e1:	eb 05                	jmp    4020e8 <urlencode+0xcd>
  4020e3:	b8 ff ff ff ff       	mov    $0xffffffff,%eax
  4020e8:	48 83 c4 10          	add    $0x10,%rsp
  4020ec:	5b                   	pop    %rbx
  4020ed:	5d                   	pop    %rbp
  4020ee:	41 5c                	pop    %r12
  4020f0:	c3                   	retq   

00000000004020f1 <rio_writen>:
  4020f1:	41 55                	push   %r13
  4020f3:	41 54                	push   %r12
  4020f5:	55                   	push   %rbp
  4020f6:	53                   	push   %rbx
  4020f7:	48 83 ec 08          	sub    $0x8,%rsp
  4020fb:	41 89 fc             	mov    %edi,%r12d
  4020fe:	48 89 f5             	mov    %rsi,%rbp
  402101:	49 89 d5             	mov    %rdx,%r13
  402104:	48 89 d3             	mov    %rdx,%rbx
  402107:	eb 28                	jmp    402131 <rio_writen+0x40>
  402109:	48 89 da             	mov    %rbx,%rdx
  40210c:	48 89 ee             	mov    %rbp,%rsi
  40210f:	44 89 e7             	mov    %r12d,%edi
  402112:	e8 29 eb ff ff       	callq  400c40 <write@plt>
  402117:	48 85 c0             	test   %rax,%rax
  40211a:	7f 0f                	jg     40212b <rio_writen+0x3a>
  40211c:	e8 cf ea ff ff       	callq  400bf0 <__errno_location@plt>
  402121:	83 38 04             	cmpl   $0x4,(%rax)
  402124:	75 15                	jne    40213b <rio_writen+0x4a>
  402126:	b8 00 00 00 00       	mov    $0x0,%eax
  40212b:	48 29 c3             	sub    %rax,%rbx
  40212e:	48 01 c5             	add    %rax,%rbp
  402131:	48 85 db             	test   %rbx,%rbx
  402134:	75 d3                	jne    402109 <rio_writen+0x18>
  402136:	4c 89 e8             	mov    %r13,%rax
  402139:	eb 07                	jmp    402142 <rio_writen+0x51>
  40213b:	48 c7 c0 ff ff ff ff 	mov    $0xffffffffffffffff,%rax
  402142:	48 83 c4 08          	add    $0x8,%rsp
  402146:	5b                   	pop    %rbx
  402147:	5d                   	pop    %rbp
  402148:	41 5c                	pop    %r12
  40214a:	41 5d                	pop    %r13
  40214c:	c3                   	retq   

000000000040214d <rio_read>:
  40214d:	41 56                	push   %r14
  40214f:	41 55                	push   %r13
  402151:	41 54                	push   %r12
  402153:	55                   	push   %rbp
  402154:	53                   	push   %rbx
  402155:	48 89 fb             	mov    %rdi,%rbx
  402158:	49 89 f6             	mov    %rsi,%r14
  40215b:	49 89 d5             	mov    %rdx,%r13
  40215e:	4c 8d 67 10          	lea    0x10(%rdi),%r12
  402162:	eb 2a                	jmp    40218e <rio_read+0x41>
  402164:	ba 00 20 00 00       	mov    $0x2000,%edx
  402169:	4c 89 e6             	mov    %r12,%rsi
  40216c:	8b 3b                	mov    (%rbx),%edi
  40216e:	e8 2d eb ff ff       	callq  400ca0 <read@plt>
  402173:	89 43 04             	mov    %eax,0x4(%rbx)
  402176:	85 c0                	test   %eax,%eax
  402178:	79 0c                	jns    402186 <rio_read+0x39>
  40217a:	e8 71 ea ff ff       	callq  400bf0 <__errno_location@plt>
  40217f:	83 38 04             	cmpl   $0x4,(%rax)
  402182:	74 0a                	je     40218e <rio_read+0x41>
  402184:	eb 37                	jmp    4021bd <rio_read+0x70>
  402186:	85 c0                	test   %eax,%eax
  402188:	74 3c                	je     4021c6 <rio_read+0x79>
  40218a:	4c 89 63 08          	mov    %r12,0x8(%rbx)
  40218e:	8b 6b 04             	mov    0x4(%rbx),%ebp
  402191:	85 ed                	test   %ebp,%ebp
  402193:	7e cf                	jle    402164 <rio_read+0x17>
  402195:	89 e8                	mov    %ebp,%eax
  402197:	4c 39 e8             	cmp    %r13,%rax
  40219a:	72 03                	jb     40219f <rio_read+0x52>
  40219c:	44 89 ed             	mov    %r13d,%ebp
  40219f:	4c 63 e5             	movslq %ebp,%r12
  4021a2:	48 8b 73 08          	mov    0x8(%rbx),%rsi
  4021a6:	4c 89 e2             	mov    %r12,%rdx
  4021a9:	4c 89 f7             	mov    %r14,%rdi
  4021ac:	e8 4f eb ff ff       	callq  400d00 <memcpy@plt>
  4021b1:	4c 01 63 08          	add    %r12,0x8(%rbx)
  4021b5:	29 6b 04             	sub    %ebp,0x4(%rbx)
  4021b8:	4c 89 e0             	mov    %r12,%rax
  4021bb:	eb 0e                	jmp    4021cb <rio_read+0x7e>
  4021bd:	48 c7 c0 ff ff ff ff 	mov    $0xffffffffffffffff,%rax
  4021c4:	eb 05                	jmp    4021cb <rio_read+0x7e>
  4021c6:	b8 00 00 00 00       	mov    $0x0,%eax
  4021cb:	5b                   	pop    %rbx
  4021cc:	5d                   	pop    %rbp
  4021cd:	41 5c                	pop    %r12
  4021cf:	41 5d                	pop    %r13
  4021d1:	41 5e                	pop    %r14
  4021d3:	c3                   	retq   

00000000004021d4 <rio_readlineb>:
  4021d4:	41 55                	push   %r13
  4021d6:	41 54                	push   %r12
  4021d8:	55                   	push   %rbp
  4021d9:	53                   	push   %rbx
  4021da:	48 83 ec 18          	sub    $0x18,%rsp
  4021de:	49 89 fd             	mov    %rdi,%r13
  4021e1:	48 89 f5             	mov    %rsi,%rbp
  4021e4:	49 89 d4             	mov    %rdx,%r12
  4021e7:	bb 01 00 00 00       	mov    $0x1,%ebx
  4021ec:	eb 3d                	jmp    40222b <rio_readlineb+0x57>
  4021ee:	ba 01 00 00 00       	mov    $0x1,%edx
  4021f3:	48 8d 74 24 0f       	lea    0xf(%rsp),%rsi
  4021f8:	4c 89 ef             	mov    %r13,%rdi
  4021fb:	e8 4d ff ff ff       	callq  40214d <rio_read>
  402200:	83 f8 01             	cmp    $0x1,%eax
  402203:	75 12                	jne    402217 <rio_readlineb+0x43>
  402205:	48 8d 55 01          	lea    0x1(%rbp),%rdx
  402209:	0f b6 44 24 0f       	movzbl 0xf(%rsp),%eax
  40220e:	88 45 00             	mov    %al,0x0(%rbp)
  402211:	3c 0a                	cmp    $0xa,%al
  402213:	75 0f                	jne    402224 <rio_readlineb+0x50>
  402215:	eb 1b                	jmp    402232 <rio_readlineb+0x5e>
  402217:	85 c0                	test   %eax,%eax
  402219:	75 23                	jne    40223e <rio_readlineb+0x6a>
  40221b:	48 83 fb 01          	cmp    $0x1,%rbx
  40221f:	90                   	nop
  402220:	75 13                	jne    402235 <rio_readlineb+0x61>
  402222:	eb 23                	jmp    402247 <rio_readlineb+0x73>
  402224:	48 83 c3 01          	add    $0x1,%rbx
  402228:	48 89 d5             	mov    %rdx,%rbp
  40222b:	4c 39 e3             	cmp    %r12,%rbx
  40222e:	72 be                	jb     4021ee <rio_readlineb+0x1a>
  402230:	eb 03                	jmp    402235 <rio_readlineb+0x61>
  402232:	48 89 d5             	mov    %rdx,%rbp
  402235:	c6 45 00 00          	movb   $0x0,0x0(%rbp)
  402239:	48 89 d8             	mov    %rbx,%rax
  40223c:	eb 0e                	jmp    40224c <rio_readlineb+0x78>
  40223e:	48 c7 c0 ff ff ff ff 	mov    $0xffffffffffffffff,%rax
  402245:	eb 05                	jmp    40224c <rio_readlineb+0x78>
  402247:	b8 00 00 00 00       	mov    $0x0,%eax
  40224c:	48 83 c4 18          	add    $0x18,%rsp
  402250:	5b                   	pop    %rbx
  402251:	5d                   	pop    %rbp
  402252:	41 5c                	pop    %r12
  402254:	41 5d                	pop    %r13
  402256:	c3                   	retq   

0000000000402257 <submitr>:
  402257:	41 57                	push   %r15
  402259:	41 56                	push   %r14
  40225b:	41 55                	push   %r13
  40225d:	41 54                	push   %r12
  40225f:	55                   	push   %rbp
  402260:	53                   	push   %rbx
  402261:	48 81 ec 48 a0 00 00 	sub    $0xa048,%rsp
  402268:	49 89 fc             	mov    %rdi,%r12
  40226b:	89 74 24 04          	mov    %esi,0x4(%rsp)
  40226f:	49 89 d7             	mov    %rdx,%r15
  402272:	49 89 ce             	mov    %rcx,%r14
  402275:	4c 89 44 24 08       	mov    %r8,0x8(%rsp)
  40227a:	4d 89 cd             	mov    %r9,%r13
  40227d:	48 8b 9c 24 80 a0 00 	mov    0xa080(%rsp),%rbx
  402284:	00 
  402285:	c7 84 24 1c 20 00 00 	movl   $0x0,0x201c(%rsp)
  40228c:	00 00 00 00 
  402290:	ba 00 00 00 00       	mov    $0x0,%edx
  402295:	be 01 00 00 00       	mov    $0x1,%esi
  40229a:	bf 02 00 00 00       	mov    $0x2,%edi
  40229f:	e8 3c eb ff ff       	callq  400de0 <socket@plt>
  4022a4:	89 c5                	mov    %eax,%ebp
  4022a6:	85 c0                	test   %eax,%eax
  4022a8:	79 4e                	jns    4022f8 <submitr+0xa1>
  4022aa:	48 b8 45 72 72 6f 72 	movabs $0x43203a726f727245,%rax
  4022b1:	3a 20 43 
  4022b4:	48 89 03             	mov    %rax,(%rbx)
  4022b7:	48 b8 6c 69 65 6e 74 	movabs $0x6e7520746e65696c,%rax
  4022be:	20 75 6e 
  4022c1:	48 89 43 08          	mov    %rax,0x8(%rbx)
  4022c5:	48 b8 61 62 6c 65 20 	movabs $0x206f7420656c6261,%rax
  4022cc:	74 6f 20 
  4022cf:	48 89 43 10          	mov    %rax,0x10(%rbx)
  4022d3:	48 b8 63 72 65 61 74 	movabs $0x7320657461657263,%rax
  4022da:	65 20 73 
  4022dd:	48 89 43 18          	mov    %rax,0x18(%rbx)
  4022e1:	c7 43 20 6f 63 6b 65 	movl   $0x656b636f,0x20(%rbx)
  4022e8:	66 c7 43 24 74 00    	movw   $0x74,0x24(%rbx)
  4022ee:	b8 ff ff ff ff       	mov    $0xffffffff,%eax
  4022f3:	e9 68 06 00 00       	jmpq   402960 <submitr+0x709>
  4022f8:	4c 89 e7             	mov    %r12,%rdi
  4022fb:	e8 d0 e9 ff ff       	callq  400cd0 <gethostbyname@plt>
  402300:	48 85 c0             	test   %rax,%rax
  402303:	75 67                	jne    40236c <submitr+0x115>
  402305:	48 b8 45 72 72 6f 72 	movabs $0x44203a726f727245,%rax
  40230c:	3a 20 44 
  40230f:	48 89 03             	mov    %rax,(%rbx)
  402312:	48 b8 4e 53 20 69 73 	movabs $0x6e7520736920534e,%rax
  402319:	20 75 6e 
  40231c:	48 89 43 08          	mov    %rax,0x8(%rbx)
  402320:	48 b8 61 62 6c 65 20 	movabs $0x206f7420656c6261,%rax
  402327:	74 6f 20 
  40232a:	48 89 43 10          	mov    %rax,0x10(%rbx)
  40232e:	48 b8 72 65 73 6f 6c 	movabs $0x2065766c6f736572,%rax
  402335:	76 65 20 
  402338:	48 89 43 18          	mov    %rax,0x18(%rbx)
  40233c:	48 b8 73 65 72 76 65 	movabs $0x6120726576726573,%rax
  402343:	72 20 61 
  402346:	48 89 43 20          	mov    %rax,0x20(%rbx)
  40234a:	c7 43 28 64 64 72 65 	movl   $0x65726464,0x28(%rbx)
  402351:	66 c7 43 2c 73 73    	movw   $0x7373,0x2c(%rbx)
  402357:	c6 43 2e 00          	movb   $0x0,0x2e(%rbx)
  40235b:	89 ef                	mov    %ebp,%edi
  40235d:	e8 2e e9 ff ff       	callq  400c90 <close@plt>
  402362:	b8 ff ff ff ff       	mov    $0xffffffff,%eax
  402367:	e9 f4 05 00 00       	jmpq   402960 <submitr+0x709>
  40236c:	48 c7 84 24 30 a0 00 	movq   $0x0,0xa030(%rsp)
  402373:	00 00 00 00 00 
  402378:	48 c7 84 24 38 a0 00 	movq   $0x0,0xa038(%rsp)
  40237f:	00 00 00 00 00 
  402384:	66 c7 84 24 30 a0 00 	movw   $0x2,0xa030(%rsp)
  40238b:	00 02 00 
  40238e:	48 8b 48 18          	mov    0x18(%rax),%rcx
  402392:	48 63 50 14          	movslq 0x14(%rax),%rdx
  402396:	48 8d b4 24 34 a0 00 	lea    0xa034(%rsp),%rsi
  40239d:	00 
  40239e:	48 8b 39             	mov    (%rcx),%rdi
  4023a1:	e8 ba e9 ff ff       	callq  400d60 <bcopy@plt>
  4023a6:	0f b7 44 24 04       	movzwl 0x4(%rsp),%eax
  4023ab:	66 c1 c8 08          	ror    $0x8,%ax
  4023af:	66 89 84 24 32 a0 00 	mov    %ax,0xa032(%rsp)
  4023b6:	00 
  4023b7:	ba 10 00 00 00       	mov    $0x10,%edx
  4023bc:	48 8d b4 24 30 a0 00 	lea    0xa030(%rsp),%rsi
  4023c3:	00 
  4023c4:	89 ef                	mov    %ebp,%edi
  4023c6:	e8 05 ea ff ff       	callq  400dd0 <connect@plt>
  4023cb:	85 c0                	test   %eax,%eax
  4023cd:	79 59                	jns    402428 <submitr+0x1d1>
  4023cf:	48 b8 45 72 72 6f 72 	movabs $0x55203a726f727245,%rax
  4023d6:	3a 20 55 
  4023d9:	48 89 03             	mov    %rax,(%rbx)
  4023dc:	48 b8 6e 61 62 6c 65 	movabs $0x6f7420656c62616e,%rax
  4023e3:	20 74 6f 
  4023e6:	48 89 43 08          	mov    %rax,0x8(%rbx)
  4023ea:	48 b8 20 63 6f 6e 6e 	movabs $0x7463656e6e6f6320,%rax
  4023f1:	65 63 74 
  4023f4:	48 89 43 10          	mov    %rax,0x10(%rbx)
  4023f8:	48 b8 20 74 6f 20 74 	movabs $0x20656874206f7420,%rax
  4023ff:	68 65 20 
  402402:	48 89 43 18          	mov    %rax,0x18(%rbx)
  402406:	c7 43 20 73 65 72 76 	movl   $0x76726573,0x20(%rbx)
  40240d:	66 c7 43 24 65 72    	movw   $0x7265,0x24(%rbx)
  402413:	c6 43 26 00          	movb   $0x0,0x26(%rbx)
  402417:	89 ef                	mov    %ebp,%edi
  402419:	e8 72 e8 ff ff       	callq  400c90 <close@plt>
  40241e:	b8 ff ff ff ff       	mov    $0xffffffff,%eax
  402423:	e9 38 05 00 00       	jmpq   402960 <submitr+0x709>
  402428:	48 c7 c2 ff ff ff ff 	mov    $0xffffffffffffffff,%rdx
  40242f:	4c 89 ef             	mov    %r13,%rdi
  402432:	b8 00 00 00 00       	mov    $0x0,%eax
  402437:	48 89 d1             	mov    %rdx,%rcx
  40243a:	f2 ae                	repnz scas %es:(%rdi),%al
  40243c:	48 f7 d1             	not    %rcx
  40243f:	48 89 ce             	mov    %rcx,%rsi
  402442:	4c 89 ff             	mov    %r15,%rdi
  402445:	48 89 d1             	mov    %rdx,%rcx
  402448:	f2 ae                	repnz scas %es:(%rdi),%al
  40244a:	48 f7 d1             	not    %rcx
  40244d:	49 89 c8             	mov    %rcx,%r8
  402450:	4c 89 f7             	mov    %r14,%rdi
  402453:	48 89 d1             	mov    %rdx,%rcx
  402456:	f2 ae                	repnz scas %es:(%rdi),%al
  402458:	49 29 c8             	sub    %rcx,%r8
  40245b:	48 8b 7c 24 08       	mov    0x8(%rsp),%rdi
  402460:	48 89 d1             	mov    %rdx,%rcx
  402463:	f2 ae                	repnz scas %es:(%rdi),%al
  402465:	49 29 c8             	sub    %rcx,%r8
  402468:	48 8d 44 76 fd       	lea    -0x3(%rsi,%rsi,2),%rax
  40246d:	49 8d 44 00 7b       	lea    0x7b(%r8,%rax,1),%rax
  402472:	48 3d 00 20 00 00    	cmp    $0x2000,%rax
  402478:	76 72                	jbe    4024ec <submitr+0x295>
  40247a:	48 b8 45 72 72 6f 72 	movabs $0x52203a726f727245,%rax
  402481:	3a 20 52 
  402484:	48 89 03             	mov    %rax,(%rbx)
  402487:	48 b8 65 73 75 6c 74 	movabs $0x747320746c757365,%rax
  40248e:	20 73 74 
  402491:	48 89 43 08          	mov    %rax,0x8(%rbx)
  402495:	48 b8 72 69 6e 67 20 	movabs $0x6f6f7420676e6972,%rax
  40249c:	74 6f 6f 
  40249f:	48 89 43 10          	mov    %rax,0x10(%rbx)
  4024a3:	48 b8 20 6c 61 72 67 	movabs $0x202e656772616c20,%rax
  4024aa:	65 2e 20 
  4024ad:	48 89 43 18          	mov    %rax,0x18(%rbx)
  4024b1:	48 b8 49 6e 63 72 65 	movabs $0x6573616572636e49,%rax
  4024b8:	61 73 65 
  4024bb:	48 89 43 20          	mov    %rax,0x20(%rbx)
  4024bf:	48 b8 20 53 55 42 4d 	movabs $0x5254494d42555320,%rax
  4024c6:	49 54 52 
  4024c9:	48 89 43 28          	mov    %rax,0x28(%rbx)
  4024cd:	48 b8 5f 4d 41 58 42 	movabs $0x46554258414d5f,%rax
  4024d4:	55 46 00 
  4024d7:	48 89 43 30          	mov    %rax,0x30(%rbx)
  4024db:	89 ef                	mov    %ebp,%edi
  4024dd:	e8 ae e7 ff ff       	callq  400c90 <close@plt>
  4024e2:	b8 ff ff ff ff       	mov    $0xffffffff,%eax
  4024e7:	e9 74 04 00 00       	jmpq   402960 <submitr+0x709>
  4024ec:	48 8d b4 24 20 40 00 	lea    0x4020(%rsp),%rsi
  4024f3:	00 
  4024f4:	b9 00 04 00 00       	mov    $0x400,%ecx
  4024f9:	b8 00 00 00 00       	mov    $0x0,%eax
  4024fe:	48 89 f7             	mov    %rsi,%rdi
  402501:	f3 48 ab             	rep stos %rax,%es:(%rdi)
  402504:	4c 89 ef             	mov    %r13,%rdi
  402507:	e8 0f fb ff ff       	callq  40201b <urlencode>
  40250c:	85 c0                	test   %eax,%eax
  40250e:	0f 89 8a 00 00 00    	jns    40259e <submitr+0x347>
  402514:	48 b8 45 72 72 6f 72 	movabs $0x52203a726f727245,%rax
  40251b:	3a 20 52 
  40251e:	48 89 03             	mov    %rax,(%rbx)
  402521:	48 b8 65 73 75 6c 74 	movabs $0x747320746c757365,%rax
  402528:	20 73 74 
  40252b:	48 89 43 08          	mov    %rax,0x8(%rbx)
  40252f:	48 b8 72 69 6e 67 20 	movabs $0x6e6f6320676e6972,%rax
  402536:	63 6f 6e 
  402539:	48 89 43 10          	mov    %rax,0x10(%rbx)
  40253d:	48 b8 74 61 69 6e 73 	movabs $0x6e6120736e696174,%rax
  402544:	20 61 6e 
  402547:	48 89 43 18          	mov    %rax,0x18(%rbx)
  40254b:	48 b8 20 69 6c 6c 65 	movabs $0x6c6167656c6c6920,%rax
  402552:	67 61 6c 
  402555:	48 89 43 20          	mov    %rax,0x20(%rbx)
  402559:	48 b8 20 6f 72 20 75 	movabs $0x72706e7520726f20,%rax
  402560:	6e 70 72 
  402563:	48 89 43 28          	mov    %rax,0x28(%rbx)
  402567:	48 b8 69 6e 74 61 62 	movabs $0x20656c6261746e69,%rax
  40256e:	6c 65 20 
  402571:	48 89 43 30          	mov    %rax,0x30(%rbx)
  402575:	48 b8 63 68 61 72 61 	movabs $0x6574636172616863,%rax
  40257c:	63 74 65 
  40257f:	48 89 43 38          	mov    %rax,0x38(%rbx)
  402583:	66 c7 43 40 72 2e    	movw   $0x2e72,0x40(%rbx)
  402589:	c6 43 42 00          	movb   $0x0,0x42(%rbx)
  40258d:	89 ef                	mov    %ebp,%edi
  40258f:	e8 fc e6 ff ff       	callq  400c90 <close@plt>
  402594:	b8 ff ff ff ff       	mov    $0xffffffff,%eax
  402599:	e9 c2 03 00 00       	jmpq   402960 <submitr+0x709>
  40259e:	4d 89 e1             	mov    %r12,%r9
  4025a1:	4c 8d 84 24 20 40 00 	lea    0x4020(%rsp),%r8
  4025a8:	00 
  4025a9:	4c 89 f9             	mov    %r15,%rcx
  4025ac:	4c 89 f2             	mov    %r14,%rdx
  4025af:	be f8 34 40 00       	mov    $0x4034f8,%esi
  4025b4:	48 8d bc 24 20 60 00 	lea    0x6020(%rsp),%rdi
  4025bb:	00 
  4025bc:	b8 00 00 00 00       	mov    $0x0,%eax
  4025c1:	e8 ea e7 ff ff       	callq  400db0 <sprintf@plt>
  4025c6:	48 8d bc 24 20 60 00 	lea    0x6020(%rsp),%rdi
  4025cd:	00 
  4025ce:	b8 00 00 00 00       	mov    $0x0,%eax
  4025d3:	48 c7 c1 ff ff ff ff 	mov    $0xffffffffffffffff,%rcx
  4025da:	f2 ae                	repnz scas %es:(%rdi),%al
  4025dc:	48 f7 d1             	not    %rcx
  4025df:	48 8d 51 ff          	lea    -0x1(%rcx),%rdx
  4025e3:	48 8d b4 24 20 60 00 	lea    0x6020(%rsp),%rsi
  4025ea:	00 
  4025eb:	89 ef                	mov    %ebp,%edi
  4025ed:	e8 ff fa ff ff       	callq  4020f1 <rio_writen>
  4025f2:	48 85 c0             	test   %rax,%rax
  4025f5:	79 6e                	jns    402665 <submitr+0x40e>
  4025f7:	48 b8 45 72 72 6f 72 	movabs $0x43203a726f727245,%rax
  4025fe:	3a 20 43 
  402601:	48 89 03             	mov    %rax,(%rbx)
  402604:	48 b8 6c 69 65 6e 74 	movabs $0x6e7520746e65696c,%rax
  40260b:	20 75 6e 
  40260e:	48 89 43 08          	mov    %rax,0x8(%rbx)
  402612:	48 b8 61 62 6c 65 20 	movabs $0x206f7420656c6261,%rax
  402619:	74 6f 20 
  40261c:	48 89 43 10          	mov    %rax,0x10(%rbx)
  402620:	48 b8 77 72 69 74 65 	movabs $0x6f74206574697277,%rax
  402627:	20 74 6f 
  40262a:	48 89 43 18          	mov    %rax,0x18(%rbx)
  40262e:	48 b8 20 74 68 65 20 	movabs $0x7365722065687420,%rax
  402635:	72 65 73 
  402638:	48 89 43 20          	mov    %rax,0x20(%rbx)
  40263c:	48 b8 75 6c 74 20 73 	movabs $0x7672657320746c75,%rax
  402643:	65 72 76 
  402646:	48 89 43 28          	mov    %rax,0x28(%rbx)
  40264a:	66 c7 43 30 65 72    	movw   $0x7265,0x30(%rbx)
  402650:	c6 43 32 00          	movb   $0x0,0x32(%rbx)
  402654:	89 ef                	mov    %ebp,%edi
  402656:	e8 35 e6 ff ff       	callq  400c90 <close@plt>
  40265b:	b8 ff ff ff ff       	mov    $0xffffffff,%eax
  402660:	e9 fb 02 00 00       	jmpq   402960 <submitr+0x709>
  402665:	89 ee                	mov    %ebp,%esi
  402667:	48 8d bc 24 20 80 00 	lea    0x8020(%rsp),%rdi
  40266e:	00 
  40266f:	e8 6c f9 ff ff       	callq  401fe0 <rio_readinitb>
  402674:	ba 00 20 00 00       	mov    $0x2000,%edx
  402679:	48 8d b4 24 20 60 00 	lea    0x6020(%rsp),%rsi
  402680:	00 
  402681:	48 8d bc 24 20 80 00 	lea    0x8020(%rsp),%rdi
  402688:	00 
  402689:	e8 46 fb ff ff       	callq  4021d4 <rio_readlineb>
  40268e:	48 85 c0             	test   %rax,%rax
  402691:	7f 7d                	jg     402710 <submitr+0x4b9>
  402693:	48 b8 45 72 72 6f 72 	movabs $0x43203a726f727245,%rax
  40269a:	3a 20 43 
  40269d:	48 89 03             	mov    %rax,(%rbx)
  4026a0:	48 b8 6c 69 65 6e 74 	movabs $0x6e7520746e65696c,%rax
  4026a7:	20 75 6e 
  4026aa:	48 89 43 08          	mov    %rax,0x8(%rbx)
  4026ae:	48 b8 61 62 6c 65 20 	movabs $0x206f7420656c6261,%rax
  4026b5:	74 6f 20 
  4026b8:	48 89 43 10          	mov    %rax,0x10(%rbx)
  4026bc:	48 b8 72 65 61 64 20 	movabs $0x7269662064616572,%rax
  4026c3:	66 69 72 
  4026c6:	48 89 43 18          	mov    %rax,0x18(%rbx)
  4026ca:	48 b8 73 74 20 68 65 	movabs $0x6564616568207473,%rax
  4026d1:	61 64 65 
  4026d4:	48 89 43 20          	mov    %rax,0x20(%rbx)
  4026d8:	48 b8 72 20 66 72 6f 	movabs $0x72206d6f72662072,%rax
  4026df:	6d 20 72 
  4026e2:	48 89 43 28          	mov    %rax,0x28(%rbx)
  4026e6:	48 b8 65 73 75 6c 74 	movabs $0x657320746c757365,%rax
  4026ed:	20 73 65 
  4026f0:	48 89 43 30          	mov    %rax,0x30(%rbx)
  4026f4:	c7 43 38 72 76 65 72 	movl   $0x72657672,0x38(%rbx)
  4026fb:	c6 43 3c 00          	movb   $0x0,0x3c(%rbx)
  4026ff:	89 ef                	mov    %ebp,%edi
  402701:	e8 8a e5 ff ff       	callq  400c90 <close@plt>
  402706:	b8 ff ff ff ff       	mov    $0xffffffff,%eax
  40270b:	e9 50 02 00 00       	jmpq   402960 <submitr+0x709>
  402710:	4c 8d 44 24 10       	lea    0x10(%rsp),%r8
  402715:	48 8d 8c 24 1c 20 00 	lea    0x201c(%rsp),%rcx
  40271c:	00 
  40271d:	48 8d 94 24 20 20 00 	lea    0x2020(%rsp),%rdx
  402724:	00 
  402725:	be 6f 35 40 00       	mov    $0x40356f,%esi
  40272a:	48 8d bc 24 20 60 00 	lea    0x6020(%rsp),%rdi
  402731:	00 
  402732:	b8 00 00 00 00       	mov    $0x0,%eax
  402737:	e8 04 e6 ff ff       	callq  400d40 <__isoc99_sscanf@plt>
  40273c:	e9 98 00 00 00       	jmpq   4027d9 <submitr+0x582>
  402741:	ba 00 20 00 00       	mov    $0x2000,%edx
  402746:	48 8d b4 24 20 60 00 	lea    0x6020(%rsp),%rsi
  40274d:	00 
  40274e:	48 8d bc 24 20 80 00 	lea    0x8020(%rsp),%rdi
  402755:	00 
  402756:	e8 79 fa ff ff       	callq  4021d4 <rio_readlineb>
  40275b:	48 85 c0             	test   %rax,%rax
  40275e:	7f 79                	jg     4027d9 <submitr+0x582>
  402760:	48 b8 45 72 72 6f 72 	movabs $0x43203a726f727245,%rax
  402767:	3a 20 43 
  40276a:	48 89 03             	mov    %rax,(%rbx)
  40276d:	48 b8 6c 69 65 6e 74 	movabs $0x6e7520746e65696c,%rax
  402774:	20 75 6e 
  402777:	48 89 43 08          	mov    %rax,0x8(%rbx)
  40277b:	48 b8 61 62 6c 65 20 	movabs $0x206f7420656c6261,%rax
  402782:	74 6f 20 
  402785:	48 89 43 10          	mov    %rax,0x10(%rbx)
  402789:	48 b8 72 65 61 64 20 	movabs $0x6165682064616572,%rax
  402790:	68 65 61 
  402793:	48 89 43 18          	mov    %rax,0x18(%rbx)
  402797:	48 b8 64 65 72 73 20 	movabs $0x6f72662073726564,%rax
  40279e:	66 72 6f 
  4027a1:	48 89 43 20          	mov    %rax,0x20(%rbx)
  4027a5:	48 b8 6d 20 74 68 65 	movabs $0x657220656874206d,%rax
  4027ac:	20 72 65 
  4027af:	48 89 43 28          	mov    %rax,0x28(%rbx)
  4027b3:	48 b8 73 75 6c 74 20 	movabs $0x72657320746c7573,%rax
  4027ba:	73 65 72 
  4027bd:	48 89 43 30          	mov    %rax,0x30(%rbx)
  4027c1:	c7 43 38 76 65 72 00 	movl   $0x726576,0x38(%rbx)
  4027c8:	89 ef                	mov    %ebp,%edi
  4027ca:	e8 c1 e4 ff ff       	callq  400c90 <close@plt>
  4027cf:	b8 ff ff ff ff       	mov    $0xffffffff,%eax
  4027d4:	e9 87 01 00 00       	jmpq   402960 <submitr+0x709>
  4027d9:	0f b6 84 24 20 60 00 	movzbl 0x6020(%rsp),%eax
  4027e0:	00 
  4027e1:	83 e8 0d             	sub    $0xd,%eax
  4027e4:	75 15                	jne    4027fb <submitr+0x5a4>
  4027e6:	0f b6 84 24 21 60 00 	movzbl 0x6021(%rsp),%eax
  4027ed:	00 
  4027ee:	83 e8 0a             	sub    $0xa,%eax
  4027f1:	75 08                	jne    4027fb <submitr+0x5a4>
  4027f3:	0f b6 84 24 22 60 00 	movzbl 0x6022(%rsp),%eax
  4027fa:	00 
  4027fb:	85 c0                	test   %eax,%eax
  4027fd:	0f 85 3e ff ff ff    	jne    402741 <submitr+0x4ea>
  402803:	ba 00 20 00 00       	mov    $0x2000,%edx
  402808:	48 8d b4 24 20 60 00 	lea    0x6020(%rsp),%rsi
  40280f:	00 
  402810:	48 8d bc 24 20 80 00 	lea    0x8020(%rsp),%rdi
  402817:	00 
  402818:	e8 b7 f9 ff ff       	callq  4021d4 <rio_readlineb>
  40281d:	48 85 c0             	test   %rax,%rax
  402820:	0f 8f 83 00 00 00    	jg     4028a9 <submitr+0x652>
  402826:	48 b8 45 72 72 6f 72 	movabs $0x43203a726f727245,%rax
  40282d:	3a 20 43 
  402830:	48 89 03             	mov    %rax,(%rbx)
  402833:	48 b8 6c 69 65 6e 74 	movabs $0x6e7520746e65696c,%rax
  40283a:	20 75 6e 
  40283d:	48 89 43 08          	mov    %rax,0x8(%rbx)
  402841:	48 b8 61 62 6c 65 20 	movabs $0x206f7420656c6261,%rax
  402848:	74 6f 20 
  40284b:	48 89 43 10          	mov    %rax,0x10(%rbx)
  40284f:	48 b8 72 65 61 64 20 	movabs $0x6174732064616572,%rax
  402856:	73 74 61 
  402859:	48 89 43 18          	mov    %rax,0x18(%rbx)
  40285d:	48 b8 74 75 73 20 6d 	movabs $0x7373656d20737574,%rax
  402864:	65 73 73 
  402867:	48 89 43 20          	mov    %rax,0x20(%rbx)
  40286b:	48 b8 61 67 65 20 66 	movabs $0x6d6f726620656761,%rax
  402872:	72 6f 6d 
  402875:	48 89 43 28          	mov    %rax,0x28(%rbx)
  402879:	48 b8 20 72 65 73 75 	movabs $0x20746c7573657220,%rax
  402880:	6c 74 20 
  402883:	48 89 43 30          	mov    %rax,0x30(%rbx)
  402887:	c7 43 38 73 65 72 76 	movl   $0x76726573,0x38(%rbx)
  40288e:	66 c7 43 3c 65 72    	movw   $0x7265,0x3c(%rbx)
  402894:	c6 43 3e 00          	movb   $0x0,0x3e(%rbx)
  402898:	89 ef                	mov    %ebp,%edi
  40289a:	e8 f1 e3 ff ff       	callq  400c90 <close@plt>
  40289f:	b8 ff ff ff ff       	mov    $0xffffffff,%eax
  4028a4:	e9 b7 00 00 00       	jmpq   402960 <submitr+0x709>
  4028a9:	8b 94 24 1c 20 00 00 	mov    0x201c(%rsp),%edx
  4028b0:	81 fa c8 00 00 00    	cmp    $0xc8,%edx
  4028b6:	74 28                	je     4028e0 <submitr+0x689>
  4028b8:	48 8d 4c 24 10       	lea    0x10(%rsp),%rcx
  4028bd:	be 38 35 40 00       	mov    $0x403538,%esi
  4028c2:	48 89 df             	mov    %rbx,%rdi
  4028c5:	b8 00 00 00 00       	mov    $0x0,%eax
  4028ca:	e8 e1 e4 ff ff       	callq  400db0 <sprintf@plt>
  4028cf:	89 ef                	mov    %ebp,%edi
  4028d1:	e8 ba e3 ff ff       	callq  400c90 <close@plt>
  4028d6:	b8 ff ff ff ff       	mov    $0xffffffff,%eax
  4028db:	e9 80 00 00 00       	jmpq   402960 <submitr+0x709>
  4028e0:	48 8d b4 24 20 60 00 	lea    0x6020(%rsp),%rsi
  4028e7:	00 
  4028e8:	48 89 df             	mov    %rbx,%rdi
  4028eb:	e8 30 e3 ff ff       	callq  400c20 <strcpy@plt>
  4028f0:	89 ef                	mov    %ebp,%edi
  4028f2:	e8 99 e3 ff ff       	callq  400c90 <close@plt>
  4028f7:	0f b6 03             	movzbl (%rbx),%eax
  4028fa:	83 e8 4f             	sub    $0x4f,%eax
  4028fd:	75 18                	jne    402917 <submitr+0x6c0>
  4028ff:	0f b6 53 01          	movzbl 0x1(%rbx),%edx
  402903:	83 ea 4b             	sub    $0x4b,%edx
  402906:	75 11                	jne    402919 <submitr+0x6c2>
  402908:	0f b6 53 02          	movzbl 0x2(%rbx),%edx
  40290c:	83 ea 0a             	sub    $0xa,%edx
  40290f:	75 08                	jne    402919 <submitr+0x6c2>
  402911:	0f b6 53 03          	movzbl 0x3(%rbx),%edx
  402915:	eb 02                	jmp    402919 <submitr+0x6c2>
  402917:	89 c2                	mov    %eax,%edx
  402919:	85 d2                	test   %edx,%edx
  40291b:	74 30                	je     40294d <submitr+0x6f6>
  40291d:	bf 80 35 40 00       	mov    $0x403580,%edi
  402922:	b9 05 00 00 00       	mov    $0x5,%ecx
  402927:	48 89 de             	mov    %rbx,%rsi
  40292a:	f3 a6                	repz cmpsb %es:(%rdi),%ds:(%rsi)
  40292c:	0f 97 c1             	seta   %cl
  40292f:	0f 92 c2             	setb   %dl
  402932:	38 d1                	cmp    %dl,%cl
  402934:	74 1e                	je     402954 <submitr+0x6fd>
  402936:	85 c0                	test   %eax,%eax
  402938:	75 0d                	jne    402947 <submitr+0x6f0>
  40293a:	0f b6 43 01          	movzbl 0x1(%rbx),%eax
  40293e:	83 e8 4b             	sub    $0x4b,%eax
  402941:	75 04                	jne    402947 <submitr+0x6f0>
  402943:	0f b6 43 02          	movzbl 0x2(%rbx),%eax
  402947:	85 c0                	test   %eax,%eax
  402949:	75 10                	jne    40295b <submitr+0x704>
  40294b:	eb 13                	jmp    402960 <submitr+0x709>
  40294d:	b8 00 00 00 00       	mov    $0x0,%eax
  402952:	eb 0c                	jmp    402960 <submitr+0x709>
  402954:	b8 00 00 00 00       	mov    $0x0,%eax
  402959:	eb 05                	jmp    402960 <submitr+0x709>
  40295b:	b8 ff ff ff ff       	mov    $0xffffffff,%eax
  402960:	48 81 c4 48 a0 00 00 	add    $0xa048,%rsp
  402967:	5b                   	pop    %rbx
  402968:	5d                   	pop    %rbp
  402969:	41 5c                	pop    %r12
  40296b:	41 5d                	pop    %r13
  40296d:	41 5e                	pop    %r14
  40296f:	41 5f                	pop    %r15
  402971:	c3                   	retq   

0000000000402972 <init_timeout>:
  402972:	53                   	push   %rbx
  402973:	89 fb                	mov    %edi,%ebx
  402975:	85 ff                	test   %edi,%edi
  402977:	74 1f                	je     402998 <init_timeout+0x26>
  402979:	85 ff                	test   %edi,%edi
  40297b:	79 05                	jns    402982 <init_timeout+0x10>
  40297d:	bb 00 00 00 00       	mov    $0x0,%ebx
  402982:	be f2 1f 40 00       	mov    $0x401ff2,%esi
  402987:	bf 0e 00 00 00       	mov    $0xe,%edi
  40298c:	e8 2f e3 ff ff       	callq  400cc0 <signal@plt>
  402991:	89 df                	mov    %ebx,%edi
  402993:	e8 e8 e2 ff ff       	callq  400c80 <alarm@plt>
  402998:	5b                   	pop    %rbx
  402999:	c3                   	retq   

000000000040299a <init_driver>:
  40299a:	55                   	push   %rbp
  40299b:	53                   	push   %rbx
  40299c:	48 83 ec 18          	sub    $0x18,%rsp
  4029a0:	48 89 fd             	mov    %rdi,%rbp
  4029a3:	be 01 00 00 00       	mov    $0x1,%esi
  4029a8:	bf 0d 00 00 00       	mov    $0xd,%edi
  4029ad:	e8 0e e3 ff ff       	callq  400cc0 <signal@plt>
  4029b2:	be 01 00 00 00       	mov    $0x1,%esi
  4029b7:	bf 1d 00 00 00       	mov    $0x1d,%edi
  4029bc:	e8 ff e2 ff ff       	callq  400cc0 <signal@plt>
  4029c1:	be 01 00 00 00       	mov    $0x1,%esi
  4029c6:	bf 1d 00 00 00       	mov    $0x1d,%edi
  4029cb:	e8 f0 e2 ff ff       	callq  400cc0 <signal@plt>
  4029d0:	ba 00 00 00 00       	mov    $0x0,%edx
  4029d5:	be 01 00 00 00       	mov    $0x1,%esi
  4029da:	bf 02 00 00 00       	mov    $0x2,%edi
  4029df:	e8 fc e3 ff ff       	callq  400de0 <socket@plt>
  4029e4:	89 c3                	mov    %eax,%ebx
  4029e6:	85 c0                	test   %eax,%eax
  4029e8:	79 4f                	jns    402a39 <init_driver+0x9f>
  4029ea:	48 b8 45 72 72 6f 72 	movabs $0x43203a726f727245,%rax
  4029f1:	3a 20 43 
  4029f4:	48 89 45 00          	mov    %rax,0x0(%rbp)
  4029f8:	48 b8 6c 69 65 6e 74 	movabs $0x6e7520746e65696c,%rax
  4029ff:	20 75 6e 
  402a02:	48 89 45 08          	mov    %rax,0x8(%rbp)
  402a06:	48 b8 61 62 6c 65 20 	movabs $0x206f7420656c6261,%rax
  402a0d:	74 6f 20 
  402a10:	48 89 45 10          	mov    %rax,0x10(%rbp)
  402a14:	48 b8 63 72 65 61 74 	movabs $0x7320657461657263,%rax
  402a1b:	65 20 73 
  402a1e:	48 89 45 18          	mov    %rax,0x18(%rbp)
  402a22:	c7 45 20 6f 63 6b 65 	movl   $0x656b636f,0x20(%rbp)
  402a29:	66 c7 45 24 74 00    	movw   $0x74,0x24(%rbp)
  402a2f:	b8 ff ff ff ff       	mov    $0xffffffff,%eax
  402a34:	e9 23 01 00 00       	jmpq   402b5c <init_driver+0x1c2>
  402a39:	bf 77 30 40 00       	mov    $0x403077,%edi
  402a3e:	e8 8d e2 ff ff       	callq  400cd0 <gethostbyname@plt>
  402a43:	48 85 c0             	test   %rax,%rax
  402a46:	75 68                	jne    402ab0 <init_driver+0x116>
  402a48:	48 b8 45 72 72 6f 72 	movabs $0x44203a726f727245,%rax
  402a4f:	3a 20 44 
  402a52:	48 89 45 00          	mov    %rax,0x0(%rbp)
  402a56:	48 b8 4e 53 20 69 73 	movabs $0x6e7520736920534e,%rax
  402a5d:	20 75 6e 
  402a60:	48 89 45 08          	mov    %rax,0x8(%rbp)
  402a64:	48 b8 61 62 6c 65 20 	movabs $0x206f7420656c6261,%rax
  402a6b:	74 6f 20 
  402a6e:	48 89 45 10          	mov    %rax,0x10(%rbp)
  402a72:	48 b8 72 65 73 6f 6c 	movabs $0x2065766c6f736572,%rax
  402a79:	76 65 20 
  402a7c:	48 89 45 18          	mov    %rax,0x18(%rbp)
  402a80:	48 b8 73 65 72 76 65 	movabs $0x6120726576726573,%rax
  402a87:	72 20 61 
  402a8a:	48 89 45 20          	mov    %rax,0x20(%rbp)
  402a8e:	c7 45 28 64 64 72 65 	movl   $0x65726464,0x28(%rbp)
  402a95:	66 c7 45 2c 73 73    	movw   $0x7373,0x2c(%rbp)
  402a9b:	c6 45 2e 00          	movb   $0x0,0x2e(%rbp)
  402a9f:	89 df                	mov    %ebx,%edi
  402aa1:	e8 ea e1 ff ff       	callq  400c90 <close@plt>
  402aa6:	b8 ff ff ff ff       	mov    $0xffffffff,%eax
  402aab:	e9 ac 00 00 00       	jmpq   402b5c <init_driver+0x1c2>
  402ab0:	48 c7 04 24 00 00 00 	movq   $0x0,(%rsp)
  402ab7:	00 
  402ab8:	48 c7 44 24 08 00 00 	movq   $0x0,0x8(%rsp)
  402abf:	00 00 
  402ac1:	66 c7 04 24 02 00    	movw   $0x2,(%rsp)
  402ac7:	48 8b 48 18          	mov    0x18(%rax),%rcx
  402acb:	48 63 50 14          	movslq 0x14(%rax),%rdx
  402acf:	48 8d 74 24 04       	lea    0x4(%rsp),%rsi
  402ad4:	48 8b 39             	mov    (%rcx),%rdi
  402ad7:	e8 84 e2 ff ff       	callq  400d60 <bcopy@plt>
  402adc:	66 c7 44 24 02 3b 6e 	movw   $0x6e3b,0x2(%rsp)
  402ae3:	ba 10 00 00 00       	mov    $0x10,%edx
  402ae8:	48 89 e6             	mov    %rsp,%rsi
  402aeb:	89 df                	mov    %ebx,%edi
  402aed:	e8 de e2 ff ff       	callq  400dd0 <connect@plt>
  402af2:	85 c0                	test   %eax,%eax
  402af4:	79 50                	jns    402b46 <init_driver+0x1ac>
  402af6:	48 b8 45 72 72 6f 72 	movabs $0x55203a726f727245,%rax
  402afd:	3a 20 55 
  402b00:	48 89 45 00          	mov    %rax,0x0(%rbp)
  402b04:	48 b8 6e 61 62 6c 65 	movabs $0x6f7420656c62616e,%rax
  402b0b:	20 74 6f 
  402b0e:	48 89 45 08          	mov    %rax,0x8(%rbp)
  402b12:	48 b8 20 63 6f 6e 6e 	movabs $0x7463656e6e6f6320,%rax
  402b19:	65 63 74 
  402b1c:	48 89 45 10          	mov    %rax,0x10(%rbp)
  402b20:	48 b8 20 74 6f 20 73 	movabs $0x76726573206f7420,%rax
  402b27:	65 72 76 
  402b2a:	48 89 45 18          	mov    %rax,0x18(%rbp)
  402b2e:	66 c7 45 20 65 72    	movw   $0x7265,0x20(%rbp)
  402b34:	c6 45 22 00          	movb   $0x0,0x22(%rbp)
  402b38:	89 df                	mov    %ebx,%edi
  402b3a:	e8 51 e1 ff ff       	callq  400c90 <close@plt>
  402b3f:	b8 ff ff ff ff       	mov    $0xffffffff,%eax
  402b44:	eb 16                	jmp    402b5c <init_driver+0x1c2>
  402b46:	89 df                	mov    %ebx,%edi
  402b48:	e8 43 e1 ff ff       	callq  400c90 <close@plt>
  402b4d:	66 c7 45 00 4f 4b    	movw   $0x4b4f,0x0(%rbp)
  402b53:	c6 45 02 00          	movb   $0x0,0x2(%rbp)
  402b57:	b8 00 00 00 00       	mov    $0x0,%eax
  402b5c:	48 83 c4 18          	add    $0x18,%rsp
  402b60:	5b                   	pop    %rbx
  402b61:	5d                   	pop    %rbp
  402b62:	c3                   	retq   

0000000000402b63 <driver_post>:
  402b63:	53                   	push   %rbx
  402b64:	48 83 ec 10          	sub    $0x10,%rsp
  402b68:	4c 89 cb             	mov    %r9,%rbx
  402b6b:	45 85 c0             	test   %r8d,%r8d
  402b6e:	74 22                	je     402b92 <driver_post+0x2f>
  402b70:	48 89 ce             	mov    %rcx,%rsi
  402b73:	bf 85 35 40 00       	mov    $0x403585,%edi
  402b78:	b8 00 00 00 00       	mov    $0x0,%eax
  402b7d:	e8 de e0 ff ff       	callq  400c60 <printf@plt>
  402b82:	66 c7 03 4f 4b       	movw   $0x4b4f,(%rbx)
  402b87:	c6 43 02 00          	movb   $0x0,0x2(%rbx)
  402b8b:	b8 00 00 00 00       	mov    $0x0,%eax
  402b90:	eb 39                	jmp    402bcb <driver_post+0x68>
  402b92:	48 85 ff             	test   %rdi,%rdi
  402b95:	74 26                	je     402bbd <driver_post+0x5a>
  402b97:	80 3f 00             	cmpb   $0x0,(%rdi)
  402b9a:	74 21                	je     402bbd <driver_post+0x5a>
  402b9c:	4c 89 0c 24          	mov    %r9,(%rsp)
  402ba0:	49 89 c9             	mov    %rcx,%r9
  402ba3:	49 89 d0             	mov    %rdx,%r8
  402ba6:	48 89 f9             	mov    %rdi,%rcx
  402ba9:	48 89 f2             	mov    %rsi,%rdx
  402bac:	be 6e 3b 00 00       	mov    $0x3b6e,%esi
  402bb1:	bf 77 30 40 00       	mov    $0x403077,%edi
  402bb6:	e8 9c f6 ff ff       	callq  402257 <submitr>
  402bbb:	eb 0e                	jmp    402bcb <driver_post+0x68>
  402bbd:	66 c7 03 4f 4b       	movw   $0x4b4f,(%rbx)
  402bc2:	c6 43 02 00          	movb   $0x0,0x2(%rbx)
  402bc6:	b8 00 00 00 00       	mov    $0x0,%eax
  402bcb:	48 83 c4 10          	add    $0x10,%rsp
  402bcf:	5b                   	pop    %rbx
  402bd0:	c3                   	retq   

0000000000402bd1 <check>:
  402bd1:	89 f8                	mov    %edi,%eax
  402bd3:	c1 e8 1c             	shr    $0x1c,%eax
  402bd6:	85 c0                	test   %eax,%eax
  402bd8:	74 1d                	je     402bf7 <check+0x26>
  402bda:	b9 00 00 00 00       	mov    $0x0,%ecx
  402bdf:	eb 0b                	jmp    402bec <check+0x1b>
  402be1:	89 f8                	mov    %edi,%eax
  402be3:	d3 e8                	shr    %cl,%eax
  402be5:	3c 0a                	cmp    $0xa,%al
  402be7:	74 14                	je     402bfd <check+0x2c>
  402be9:	83 c1 08             	add    $0x8,%ecx
  402bec:	83 f9 1f             	cmp    $0x1f,%ecx
  402bef:	7e f0                	jle    402be1 <check+0x10>
  402bf1:	b8 01 00 00 00       	mov    $0x1,%eax
  402bf6:	c3                   	retq   
  402bf7:	b8 00 00 00 00       	mov    $0x0,%eax
  402bfc:	c3                   	retq   
  402bfd:	b8 00 00 00 00       	mov    $0x0,%eax
  402c02:	c3                   	retq   

0000000000402c03 <gencookie>:
  402c03:	53                   	push   %rbx
  402c04:	83 c7 01             	add    $0x1,%edi
  402c07:	e8 f4 df ff ff       	callq  400c00 <srandom@plt>
  402c0c:	e8 0f e1 ff ff       	callq  400d20 <random@plt>
  402c11:	89 c3                	mov    %eax,%ebx
  402c13:	89 c7                	mov    %eax,%edi
  402c15:	e8 b7 ff ff ff       	callq  402bd1 <check>
  402c1a:	85 c0                	test   %eax,%eax
  402c1c:	74 ee                	je     402c0c <gencookie+0x9>
  402c1e:	89 d8                	mov    %ebx,%eax
  402c20:	5b                   	pop    %rbx
  402c21:	c3                   	retq   
  402c22:	66 2e 0f 1f 84 00 00 	nopw   %cs:0x0(%rax,%rax,1)
  402c29:	00 00 00 
  402c2c:	0f 1f 40 00          	nopl   0x0(%rax)

0000000000402c30 <__libc_csu_init>:
  402c30:	41 57                	push   %r15
  402c32:	41 89 ff             	mov    %edi,%r15d
  402c35:	41 56                	push   %r14
  402c37:	49 89 f6             	mov    %rsi,%r14
  402c3a:	41 55                	push   %r13
  402c3c:	49 89 d5             	mov    %rdx,%r13
  402c3f:	41 54                	push   %r12
  402c41:	4c 8d 25 c8 21 20 00 	lea    0x2021c8(%rip),%r12        # 604e10 <__frame_dummy_init_array_entry>
  402c48:	55                   	push   %rbp
  402c49:	48 8d 2d c8 21 20 00 	lea    0x2021c8(%rip),%rbp        # 604e18 <__init_array_end>
  402c50:	53                   	push   %rbx
  402c51:	4c 29 e5             	sub    %r12,%rbp
  402c54:	31 db                	xor    %ebx,%ebx
  402c56:	48 c1 fd 03          	sar    $0x3,%rbp
  402c5a:	48 83 ec 08          	sub    $0x8,%rsp
  402c5e:	e8 4d df ff ff       	callq  400bb0 <_init>
  402c63:	48 85 ed             	test   %rbp,%rbp
  402c66:	74 1e                	je     402c86 <__libc_csu_init+0x56>
  402c68:	0f 1f 84 00 00 00 00 	nopl   0x0(%rax,%rax,1)
  402c6f:	00 
  402c70:	4c 89 ea             	mov    %r13,%rdx
  402c73:	4c 89 f6             	mov    %r14,%rsi
  402c76:	44 89 ff             	mov    %r15d,%edi
  402c79:	41 ff 14 dc          	callq  *(%r12,%rbx,8)
  402c7d:	48 83 c3 01          	add    $0x1,%rbx
  402c81:	48 39 eb             	cmp    %rbp,%rbx
  402c84:	75 ea                	jne    402c70 <__libc_csu_init+0x40>
  402c86:	48 83 c4 08          	add    $0x8,%rsp
  402c8a:	5b                   	pop    %rbx
  402c8b:	5d                   	pop    %rbp
  402c8c:	41 5c                	pop    %r12
  402c8e:	41 5d                	pop    %r13
  402c90:	41 5e                	pop    %r14
  402c92:	41 5f                	pop    %r15
  402c94:	c3                   	retq   
  402c95:	90                   	nop
  402c96:	66 2e 0f 1f 84 00 00 	nopw   %cs:0x0(%rax,%rax,1)
  402c9d:	00 00 00 

0000000000402ca0 <__libc_csu_fini>:
  402ca0:	f3 c3                	repz retq 

Disassembly of section .fini:

0000000000402ca4 <_fini>:
  402ca4:	48 83 ec 08          	sub    $0x8,%rsp
  402ca8:	48 83 c4 08          	add    $0x8,%rsp
  402cac:	c3                   	retq   
